
user/usr/bin/fork-and-wait.exec:     file format elf32-i386


Disassembly of section .text:

08048094 <main>:
 8048094:	55                   	push   %ebp
 8048095:	89 e5                	mov    %esp,%ebp
 8048097:	83 e4 f0             	and    $0xfffffff0,%esp
 804809a:	83 ec 20             	sub    $0x20,%esp
 804809d:	c7 44 24 08 00 00 00 	movl   $0x0,0x8(%esp)
 80480a4:	00 
 80480a5:	c7 44 24 04 00 00 00 	movl   $0x0,0x4(%esp)
 80480ac:	00 
 80480ad:	c7 04 24 54 be 04 08 	movl   $0x804be54,(%esp)
 80480b4:	e8 dc 06 00 00       	call   8048795 <open>
 80480b9:	c7 44 24 08 00 00 00 	movl   $0x0,0x8(%esp)
 80480c0:	00 
 80480c1:	c7 44 24 04 01 00 00 	movl   $0x1,0x4(%esp)
 80480c8:	00 
 80480c9:	c7 04 24 54 be 04 08 	movl   $0x804be54,(%esp)
 80480d0:	e8 c0 06 00 00       	call   8048795 <open>
 80480d5:	c7 44 24 08 13 00 00 	movl   $0x13,0x8(%esp)
 80480dc:	00 
 80480dd:	c7 44 24 04 5e be 04 	movl   $0x804be5e,0x4(%esp)
 80480e4:	08 
 80480e5:	c7 04 24 02 00 00 00 	movl   $0x2,(%esp)
 80480ec:	e8 dd 07 00 00       	call   80488ce <write>
 80480f1:	e8 56 02 00 00       	call   804834c <fork>
 80480f6:	89 44 24 1c          	mov    %eax,0x1c(%esp)
 80480fa:	83 7c 24 1c 00       	cmpl   $0x0,0x1c(%esp)
 80480ff:	75 2a                	jne    804812b <main+0x97>
 8048101:	c7 44 24 08 16 00 00 	movl   $0x16,0x8(%esp)
 8048108:	00 
 8048109:	c7 44 24 04 72 be 04 	movl   $0x804be72,0x4(%esp)
 8048110:	08 
 8048111:	c7 04 24 02 00 00 00 	movl   $0x2,(%esp)
 8048118:	e8 b1 07 00 00       	call   80488ce <write>
 804811d:	c7 04 24 00 00 00 00 	movl   $0x0,(%esp)
 8048124:	e8 ff 02 00 00       	call   8048428 <exit>
 8048129:	eb 79                	jmp    80481a4 <main+0x110>
 804812b:	83 7c 24 1c ff       	cmpl   $0xffffffff,0x1c(%esp)
 8048130:	75 1e                	jne    8048150 <main+0xbc>
 8048132:	c7 44 24 08 0f 00 00 	movl   $0xf,0x8(%esp)
 8048139:	00 
 804813a:	c7 44 24 04 89 be 04 	movl   $0x804be89,0x4(%esp)
 8048141:	08 
 8048142:	c7 04 24 02 00 00 00 	movl   $0x2,(%esp)
 8048149:	e8 80 07 00 00       	call   80488ce <write>
 804814e:	eb 54                	jmp    80481a4 <main+0x110>
 8048150:	c7 44 24 08 1e 00 00 	movl   $0x1e,0x8(%esp)
 8048157:	00 
 8048158:	c7 44 24 04 9c be 04 	movl   $0x804be9c,0x4(%esp)
 804815f:	08 
 8048160:	c7 04 24 02 00 00 00 	movl   $0x2,(%esp)
 8048167:	e8 62 07 00 00       	call   80488ce <write>
 804816c:	c7 44 24 08 00 00 00 	movl   $0x0,0x8(%esp)
 8048173:	00 
 8048174:	c7 44 24 04 00 00 00 	movl   $0x0,0x4(%esp)
 804817b:	00 
 804817c:	8b 44 24 1c          	mov    0x1c(%esp),%eax
 8048180:	89 04 24             	mov    %eax,(%esp)
 8048183:	e8 97 03 00 00       	call   804851f <waitpid>
 8048188:	c7 44 24 08 2a 00 00 	movl   $0x2a,0x8(%esp)
 804818f:	00 
 8048190:	c7 44 24 04 bc be 04 	movl   $0x804bebc,0x4(%esp)
 8048197:	08 
 8048198:	c7 04 24 02 00 00 00 	movl   $0x2,(%esp)
 804819f:	e8 2a 07 00 00       	call   80488ce <write>
 80481a4:	b8 00 00 00 00       	mov    $0x0,%eax
 80481a9:	c9                   	leave  
 80481aa:	c3                   	ret    
 80481ab:	90                   	nop

080481ac <__libc_static_entry>:
 80481ac:	83 c4 04             	add    $0x4,%esp
 80481af:	e8 e0 fe ff ff       	call   8048094 <main>
 80481b4:	50                   	push   %eax
 80481b5:	e8 6e 02 00 00       	call   8048428 <exit>
 80481ba:	90                   	nop
 80481bb:	90                   	nop

080481bc <trap>:
 80481bc:	55                   	push   %ebp
 80481bd:	89 e5                	mov    %esp,%ebp
 80481bf:	56                   	push   %esi
 80481c0:	83 ec 14             	sub    $0x14,%esp
 80481c3:	e8 3f 0f 00 00       	call   8049107 <__i686.get_pc_thunk.cx>
 80481c8:	81 c1 80 64 00 00    	add    $0x6480,%ecx
 80481ce:	8b 45 08             	mov    0x8(%ebp),%eax
 80481d1:	89 45 e8             	mov    %eax,-0x18(%ebp)
 80481d4:	8b 55 0c             	mov    0xc(%ebp),%edx
 80481d7:	8b 45 e8             	mov    -0x18(%ebp),%eax
 80481da:	cd 2e                	int    $0x2e
 80481dc:	89 c6                	mov    %eax,%esi
 80481de:	89 75 f8             	mov    %esi,-0x8(%ebp)
 80481e1:	c7 45 e8 27 00 00 00 	movl   $0x27,-0x18(%ebp)
 80481e8:	8b 45 e8             	mov    -0x18(%ebp),%eax
 80481eb:	cd 2e                	int    $0x2e
 80481ed:	89 c2                	mov    %eax,%edx
 80481ef:	8b 81 fc ff ff ff    	mov    -0x4(%ecx),%eax
 80481f5:	89 10                	mov    %edx,(%eax)
 80481f7:	8b 45 f8             	mov    -0x8(%ebp),%eax
 80481fa:	83 c4 14             	add    $0x14,%esp
 80481fd:	5e                   	pop    %esi
 80481fe:	5d                   	pop    %ebp
 80481ff:	c3                   	ret    

08048200 <sbrk>:
 8048200:	55                   	push   %ebp
 8048201:	89 e5                	mov    %esp,%ebp
 8048203:	56                   	push   %esi
 8048204:	53                   	push   %ebx
 8048205:	83 ec 30             	sub    $0x30,%esp
 8048208:	e8 fe 0e 00 00       	call   804910b <__i686.get_pc_thunk.bx>
 804820d:	81 c3 3b 64 00 00    	add    $0x643b,%ebx
 8048213:	8b 83 18 00 00 00    	mov    0x18(%ebx),%eax
 8048219:	85 c0                	test   %eax,%eax
 804821b:	75 51                	jne    804826e <sbrk+0x6e>
 804821d:	c7 45 f0 2c 00 00 00 	movl   $0x2c,-0x10(%ebp)
 8048224:	c7 45 ec 00 00 00 00 	movl   $0x0,-0x14(%ebp)
 804822b:	8b 45 f0             	mov    -0x10(%ebp),%eax
 804822e:	89 45 e4             	mov    %eax,-0x1c(%ebp)
 8048231:	8b 55 ec             	mov    -0x14(%ebp),%edx
 8048234:	8b 45 e4             	mov    -0x1c(%ebp),%eax
 8048237:	cd 2e                	int    $0x2e
 8048239:	89 c6                	mov    %eax,%esi
 804823b:	89 75 e8             	mov    %esi,-0x18(%ebp)
 804823e:	c7 45 e4 27 00 00 00 	movl   $0x27,-0x1c(%ebp)
 8048245:	8b 45 e4             	mov    -0x1c(%ebp),%eax
 8048248:	cd 2e                	int    $0x2e
 804824a:	89 c2                	mov    %eax,%edx
 804824c:	8b 83 fc ff ff ff    	mov    -0x4(%ebx),%eax
 8048252:	89 10                	mov    %edx,(%eax)
 8048254:	8b 45 e8             	mov    -0x18(%ebp),%eax
 8048257:	89 83 18 00 00 00    	mov    %eax,0x18(%ebx)
 804825d:	8b 83 18 00 00 00    	mov    0x18(%ebx),%eax
 8048263:	85 c0                	test   %eax,%eax
 8048265:	79 07                	jns    804826e <sbrk+0x6e>
 8048267:	b8 ff ff ff ff       	mov    $0xffffffff,%eax
 804826c:	eb 5b                	jmp    80482c9 <sbrk+0xc9>
 804826e:	8b 83 18 00 00 00    	mov    0x18(%ebx),%eax
 8048274:	89 45 f4             	mov    %eax,-0xc(%ebp)
 8048277:	83 7d 08 00          	cmpl   $0x0,0x8(%ebp)
 804827b:	79 2a                	jns    80482a7 <sbrk+0xa7>
 804827d:	8b 45 08             	mov    0x8(%ebp),%eax
 8048280:	f7 d8                	neg    %eax
 8048282:	3b 45 f4             	cmp    -0xc(%ebp),%eax
 8048285:	76 07                	jbe    804828e <sbrk+0x8e>
 8048287:	b8 ff ff ff ff       	mov    $0xffffffff,%eax
 804828c:	eb 3b                	jmp    80482c9 <sbrk+0xc9>
 804828e:	8b 45 08             	mov    0x8(%ebp),%eax
 8048291:	03 45 f4             	add    -0xc(%ebp),%eax
 8048294:	89 04 24             	mov    %eax,(%esp)
 8048297:	e8 34 00 00 00       	call   80482d0 <brk>
 804829c:	85 c0                	test   %eax,%eax
 804829e:	79 26                	jns    80482c6 <sbrk+0xc6>
 80482a0:	b8 ff ff ff ff       	mov    $0xffffffff,%eax
 80482a5:	eb 22                	jmp    80482c9 <sbrk+0xc9>
 80482a7:	83 7d 08 00          	cmpl   $0x0,0x8(%ebp)
 80482ab:	7e 19                	jle    80482c6 <sbrk+0xc6>
 80482ad:	8b 45 08             	mov    0x8(%ebp),%eax
 80482b0:	03 45 f4             	add    -0xc(%ebp),%eax
 80482b3:	89 04 24             	mov    %eax,(%esp)
 80482b6:	e8 15 00 00 00       	call   80482d0 <brk>
 80482bb:	85 c0                	test   %eax,%eax
 80482bd:	79 07                	jns    80482c6 <sbrk+0xc6>
 80482bf:	b8 ff ff ff ff       	mov    $0xffffffff,%eax
 80482c4:	eb 03                	jmp    80482c9 <sbrk+0xc9>
 80482c6:	8b 45 f4             	mov    -0xc(%ebp),%eax
 80482c9:	83 c4 30             	add    $0x30,%esp
 80482cc:	5b                   	pop    %ebx
 80482cd:	5e                   	pop    %esi
 80482ce:	5d                   	pop    %ebp
 80482cf:	c3                   	ret    

080482d0 <brk>:
 80482d0:	55                   	push   %ebp
 80482d1:	89 e5                	mov    %esp,%ebp
 80482d3:	56                   	push   %esi
 80482d4:	83 ec 14             	sub    $0x14,%esp
 80482d7:	e8 2b 0e 00 00       	call   8049107 <__i686.get_pc_thunk.cx>
 80482dc:	81 c1 6c 63 00 00    	add    $0x636c,%ecx
 80482e2:	83 7d 08 00          	cmpl   $0x0,0x8(%ebp)
 80482e6:	75 07                	jne    80482ef <brk+0x1f>
 80482e8:	b8 ff ff ff ff       	mov    $0xffffffff,%eax
 80482ed:	eb 57                	jmp    8048346 <brk+0x76>
 80482ef:	8b 45 08             	mov    0x8(%ebp),%eax
 80482f2:	c7 45 f4 2c 00 00 00 	movl   $0x2c,-0xc(%ebp)
 80482f9:	89 45 f0             	mov    %eax,-0x10(%ebp)
 80482fc:	8b 45 f4             	mov    -0xc(%ebp),%eax
 80482ff:	89 45 e8             	mov    %eax,-0x18(%ebp)
 8048302:	8b 55 f0             	mov    -0x10(%ebp),%edx
 8048305:	8b 45 e8             	mov    -0x18(%ebp),%eax
 8048308:	cd 2e                	int    $0x2e
 804830a:	89 c6                	mov    %eax,%esi
 804830c:	89 75 ec             	mov    %esi,-0x14(%ebp)
 804830f:	c7 45 e8 27 00 00 00 	movl   $0x27,-0x18(%ebp)
 8048316:	8b 45 e8             	mov    -0x18(%ebp),%eax
 8048319:	cd 2e                	int    $0x2e
 804831b:	89 c2                	mov    %eax,%edx
 804831d:	8b 81 fc ff ff ff    	mov    -0x4(%ecx),%eax
 8048323:	89 10                	mov    %edx,(%eax)
 8048325:	8b 45 ec             	mov    -0x14(%ebp),%eax
 8048328:	89 45 f8             	mov    %eax,-0x8(%ebp)
 804832b:	83 7d f8 ff          	cmpl   $0xffffffff,-0x8(%ebp)
 804832f:	75 07                	jne    8048338 <brk+0x68>
 8048331:	b8 ff ff ff ff       	mov    $0xffffffff,%eax
 8048336:	eb 0e                	jmp    8048346 <brk+0x76>
 8048338:	8b 45 f8             	mov    -0x8(%ebp),%eax
 804833b:	89 81 18 00 00 00    	mov    %eax,0x18(%ecx)
 8048341:	b8 00 00 00 00       	mov    $0x0,%eax
 8048346:	83 c4 14             	add    $0x14,%esp
 8048349:	5e                   	pop    %esi
 804834a:	5d                   	pop    %ebp
 804834b:	c3                   	ret    

0804834c <fork>:
 804834c:	55                   	push   %ebp
 804834d:	89 e5                	mov    %esp,%ebp
 804834f:	56                   	push   %esi
 8048350:	83 ec 14             	sub    $0x14,%esp
 8048353:	e8 af 0d 00 00       	call   8049107 <__i686.get_pc_thunk.cx>
 8048358:	81 c1 f0 62 00 00    	add    $0x62f0,%ecx
 804835e:	c7 45 f8 02 00 00 00 	movl   $0x2,-0x8(%ebp)
 8048365:	c7 45 f4 00 00 00 00 	movl   $0x0,-0xc(%ebp)
 804836c:	8b 45 f8             	mov    -0x8(%ebp),%eax
 804836f:	89 45 e8             	mov    %eax,-0x18(%ebp)
 8048372:	8b 55 f4             	mov    -0xc(%ebp),%edx
 8048375:	8b 45 e8             	mov    -0x18(%ebp),%eax
 8048378:	cd 2e                	int    $0x2e
 804837a:	89 c6                	mov    %eax,%esi
 804837c:	89 75 f0             	mov    %esi,-0x10(%ebp)
 804837f:	c7 45 e8 27 00 00 00 	movl   $0x27,-0x18(%ebp)
 8048386:	8b 45 e8             	mov    -0x18(%ebp),%eax
 8048389:	cd 2e                	int    $0x2e
 804838b:	89 c2                	mov    %eax,%edx
 804838d:	8b 81 fc ff ff ff    	mov    -0x4(%ecx),%eax
 8048393:	89 10                	mov    %edx,(%eax)
 8048395:	8b 45 f0             	mov    -0x10(%ebp),%eax
 8048398:	83 c4 14             	add    $0x14,%esp
 804839b:	5e                   	pop    %esi
 804839c:	5d                   	pop    %ebp
 804839d:	c3                   	ret    

0804839e <atexit>:
 804839e:	55                   	push   %ebp
 804839f:	89 e5                	mov    %esp,%ebp
 80483a1:	e8 61 0d 00 00       	call   8049107 <__i686.get_pc_thunk.cx>
 80483a6:	81 c1 a2 62 00 00    	add    $0x62a2,%ecx
 80483ac:	8b 81 b8 00 00 00    	mov    0xb8(%ecx),%eax
 80483b2:	83 f8 1f             	cmp    $0x1f,%eax
 80483b5:	7f 20                	jg     80483d7 <atexit+0x39>
 80483b7:	8b 81 b8 00 00 00    	mov    0xb8(%ecx),%eax
 80483bd:	8b 55 08             	mov    0x8(%ebp),%edx
 80483c0:	89 94 81 38 00 00 00 	mov    %edx,0x38(%ecx,%eax,4)
 80483c7:	83 c0 01             	add    $0x1,%eax
 80483ca:	89 81 b8 00 00 00    	mov    %eax,0xb8(%ecx)
 80483d0:	b8 00 00 00 00       	mov    $0x0,%eax
 80483d5:	eb 05                	jmp    80483dc <atexit+0x3e>
 80483d7:	b8 01 00 00 00       	mov    $0x1,%eax
 80483dc:	5d                   	pop    %ebp
 80483dd:	c3                   	ret    

080483de <_exit>:
 80483de:	55                   	push   %ebp
 80483df:	89 e5                	mov    %esp,%ebp
 80483e1:	56                   	push   %esi
 80483e2:	83 ec 14             	sub    $0x14,%esp
 80483e5:	e8 1d 0d 00 00       	call   8049107 <__i686.get_pc_thunk.cx>
 80483ea:	81 c1 5e 62 00 00    	add    $0x625e,%ecx
 80483f0:	8b 45 08             	mov    0x8(%ebp),%eax
 80483f3:	c7 45 f8 01 00 00 00 	movl   $0x1,-0x8(%ebp)
 80483fa:	89 45 f4             	mov    %eax,-0xc(%ebp)
 80483fd:	8b 45 f8             	mov    -0x8(%ebp),%eax
 8048400:	89 45 e8             	mov    %eax,-0x18(%ebp)
 8048403:	8b 55 f4             	mov    -0xc(%ebp),%edx
 8048406:	8b 45 e8             	mov    -0x18(%ebp),%eax
 8048409:	cd 2e                	int    $0x2e
 804840b:	89 c6                	mov    %eax,%esi
 804840d:	89 75 f0             	mov    %esi,-0x10(%ebp)
 8048410:	c7 45 e8 27 00 00 00 	movl   $0x27,-0x18(%ebp)
 8048417:	8b 45 e8             	mov    -0x18(%ebp),%eax
 804841a:	cd 2e                	int    $0x2e
 804841c:	89 c2                	mov    %eax,%edx
 804841e:	8b 81 fc ff ff ff    	mov    -0x4(%ecx),%eax
 8048424:	89 10                	mov    %edx,(%eax)
 8048426:	eb fe                	jmp    8048426 <_exit+0x48>

08048428 <exit>:
 8048428:	55                   	push   %ebp
 8048429:	89 e5                	mov    %esp,%ebp
 804842b:	53                   	push   %ebx
 804842c:	83 ec 14             	sub    $0x14,%esp
 804842f:	e8 d7 0c 00 00       	call   804910b <__i686.get_pc_thunk.bx>
 8048434:	81 c3 14 62 00 00    	add    $0x6214,%ebx
 804843a:	eb 0f                	jmp    804844b <exit+0x23>
 804843c:	8b 83 b8 00 00 00    	mov    0xb8(%ebx),%eax
 8048442:	8b 84 83 38 00 00 00 	mov    0x38(%ebx,%eax,4),%eax
 8048449:	ff d0                	call   *%eax
 804844b:	8b 83 b8 00 00 00    	mov    0xb8(%ebx),%eax
 8048451:	85 c0                	test   %eax,%eax
 8048453:	0f 95 c2             	setne  %dl
 8048456:	83 e8 01             	sub    $0x1,%eax
 8048459:	89 83 b8 00 00 00    	mov    %eax,0xb8(%ebx)
 804845f:	84 d2                	test   %dl,%dl
 8048461:	75 d9                	jne    804843c <exit+0x14>
 8048463:	8b 45 08             	mov    0x8(%ebp),%eax
 8048466:	89 04 24             	mov    %eax,(%esp)
 8048469:	e8 70 ff ff ff       	call   80483de <_exit>
 804846e:	8b 45 08             	mov    0x8(%ebp),%eax
 8048471:	89 04 24             	mov    %eax,(%esp)
 8048474:	e8 af ff ff ff       	call   8048428 <exit>
 8048479:	83 c4 14             	add    $0x14,%esp
 804847c:	5b                   	pop    %ebx
 804847d:	5d                   	pop    %ebp
 804847e:	c3                   	ret    

0804847f <yield>:
 804847f:	55                   	push   %ebp
 8048480:	89 e5                	mov    %esp,%ebp
 8048482:	53                   	push   %ebx
 8048483:	83 ec 14             	sub    $0x14,%esp
 8048486:	e8 80 0c 00 00       	call   804910b <__i686.get_pc_thunk.bx>
 804848b:	81 c3 bd 61 00 00    	add    $0x61bd,%ebx
 8048491:	e8 b6 fe ff ff       	call   804834c <fork>
 8048496:	85 c0                	test   %eax,%eax
 8048498:	74 0e                	je     80484a8 <yield+0x29>
 804849a:	c7 04 24 00 00 00 00 	movl   $0x0,(%esp)
 80484a1:	e8 14 00 00 00       	call   80484ba <wait>
 80484a6:	eb 0c                	jmp    80484b4 <yield+0x35>
 80484a8:	c7 04 24 00 00 00 00 	movl   $0x0,(%esp)
 80484af:	e8 74 ff ff ff       	call   8048428 <exit>
 80484b4:	83 c4 14             	add    $0x14,%esp
 80484b7:	5b                   	pop    %ebx
 80484b8:	5d                   	pop    %ebp
 80484b9:	c3                   	ret    

080484ba <wait>:
 80484ba:	55                   	push   %ebp
 80484bb:	89 e5                	mov    %esp,%ebp
 80484bd:	56                   	push   %esi
 80484be:	83 ec 24             	sub    $0x24,%esp
 80484c1:	e8 41 0c 00 00       	call   8049107 <__i686.get_pc_thunk.cx>
 80484c6:	81 c1 82 61 00 00    	add    $0x6182,%ecx
 80484cc:	c7 45 e4 ff ff ff ff 	movl   $0xffffffff,-0x1c(%ebp)
 80484d3:	c7 45 e8 00 00 00 00 	movl   $0x0,-0x18(%ebp)
 80484da:	8b 45 08             	mov    0x8(%ebp),%eax
 80484dd:	89 45 ec             	mov    %eax,-0x14(%ebp)
 80484e0:	8d 45 e4             	lea    -0x1c(%ebp),%eax
 80484e3:	c7 45 f8 07 00 00 00 	movl   $0x7,-0x8(%ebp)
 80484ea:	89 45 f4             	mov    %eax,-0xc(%ebp)
 80484ed:	8b 45 f8             	mov    -0x8(%ebp),%eax
 80484f0:	89 45 d8             	mov    %eax,-0x28(%ebp)
 80484f3:	8b 55 f4             	mov    -0xc(%ebp),%edx
 80484f6:	8b 45 d8             	mov    -0x28(%ebp),%eax
 80484f9:	cd 2e                	int    $0x2e
 80484fb:	89 c6                	mov    %eax,%esi
 80484fd:	89 75 f0             	mov    %esi,-0x10(%ebp)
 8048500:	c7 45 d8 27 00 00 00 	movl   $0x27,-0x28(%ebp)
 8048507:	8b 45 d8             	mov    -0x28(%ebp),%eax
 804850a:	cd 2e                	int    $0x2e
 804850c:	89 c2                	mov    %eax,%edx
 804850e:	8b 81 fc ff ff ff    	mov    -0x4(%ecx),%eax
 8048514:	89 10                	mov    %edx,(%eax)
 8048516:	8b 45 f0             	mov    -0x10(%ebp),%eax
 8048519:	83 c4 24             	add    $0x24,%esp
 804851c:	5e                   	pop    %esi
 804851d:	5d                   	pop    %ebp
 804851e:	c3                   	ret    

0804851f <waitpid>:
 804851f:	55                   	push   %ebp
 8048520:	89 e5                	mov    %esp,%ebp
 8048522:	56                   	push   %esi
 8048523:	83 ec 24             	sub    $0x24,%esp
 8048526:	e8 dc 0b 00 00       	call   8049107 <__i686.get_pc_thunk.cx>
 804852b:	81 c1 1d 61 00 00    	add    $0x611d,%ecx
 8048531:	8b 45 08             	mov    0x8(%ebp),%eax
 8048534:	89 45 e4             	mov    %eax,-0x1c(%ebp)
 8048537:	8b 45 0c             	mov    0xc(%ebp),%eax
 804853a:	89 45 e8             	mov    %eax,-0x18(%ebp)
 804853d:	8b 45 10             	mov    0x10(%ebp),%eax
 8048540:	89 45 ec             	mov    %eax,-0x14(%ebp)
 8048543:	8d 45 e4             	lea    -0x1c(%ebp),%eax
 8048546:	c7 45 f8 07 00 00 00 	movl   $0x7,-0x8(%ebp)
 804854d:	89 45 f4             	mov    %eax,-0xc(%ebp)
 8048550:	8b 45 f8             	mov    -0x8(%ebp),%eax
 8048553:	89 45 d8             	mov    %eax,-0x28(%ebp)
 8048556:	8b 55 f4             	mov    -0xc(%ebp),%edx
 8048559:	8b 45 d8             	mov    -0x28(%ebp),%eax
 804855c:	cd 2e                	int    $0x2e
 804855e:	89 c6                	mov    %eax,%esi
 8048560:	89 75 f0             	mov    %esi,-0x10(%ebp)
 8048563:	c7 45 d8 27 00 00 00 	movl   $0x27,-0x28(%ebp)
 804856a:	8b 45 d8             	mov    -0x28(%ebp),%eax
 804856d:	cd 2e                	int    $0x2e
 804856f:	89 c2                	mov    %eax,%edx
 8048571:	8b 81 fc ff ff ff    	mov    -0x4(%ecx),%eax
 8048577:	89 10                	mov    %edx,(%eax)
 8048579:	8b 45 f0             	mov    -0x10(%ebp),%eax
 804857c:	83 c4 24             	add    $0x24,%esp
 804857f:	5e                   	pop    %esi
 8048580:	5d                   	pop    %ebp
 8048581:	c3                   	ret    

08048582 <thr_exit>:
 8048582:	55                   	push   %ebp
 8048583:	89 e5                	mov    %esp,%ebp
 8048585:	56                   	push   %esi
 8048586:	83 ec 14             	sub    $0x14,%esp
 8048589:	e8 79 0b 00 00       	call   8049107 <__i686.get_pc_thunk.cx>
 804858e:	81 c1 ba 60 00 00    	add    $0x60ba,%ecx
 8048594:	8b 45 08             	mov    0x8(%ebp),%eax
 8048597:	c7 45 f8 1f 00 00 00 	movl   $0x1f,-0x8(%ebp)
 804859e:	89 45 f4             	mov    %eax,-0xc(%ebp)
 80485a1:	8b 45 f8             	mov    -0x8(%ebp),%eax
 80485a4:	89 45 e8             	mov    %eax,-0x18(%ebp)
 80485a7:	8b 55 f4             	mov    -0xc(%ebp),%edx
 80485aa:	8b 45 e8             	mov    -0x18(%ebp),%eax
 80485ad:	cd 2e                	int    $0x2e
 80485af:	89 c6                	mov    %eax,%esi
 80485b1:	89 75 f0             	mov    %esi,-0x10(%ebp)
 80485b4:	c7 45 e8 27 00 00 00 	movl   $0x27,-0x18(%ebp)
 80485bb:	8b 45 e8             	mov    -0x18(%ebp),%eax
 80485be:	cd 2e                	int    $0x2e
 80485c0:	89 c2                	mov    %eax,%edx
 80485c2:	8b 81 fc ff ff ff    	mov    -0x4(%ecx),%eax
 80485c8:	89 10                	mov    %edx,(%eax)
 80485ca:	83 c4 14             	add    $0x14,%esp
 80485cd:	5e                   	pop    %esi
 80485ce:	5d                   	pop    %ebp
 80485cf:	c3                   	ret    

080485d0 <getpid>:
 80485d0:	55                   	push   %ebp
 80485d1:	89 e5                	mov    %esp,%ebp
 80485d3:	56                   	push   %esi
 80485d4:	83 ec 14             	sub    $0x14,%esp
 80485d7:	e8 2b 0b 00 00       	call   8049107 <__i686.get_pc_thunk.cx>
 80485dc:	81 c1 6c 60 00 00    	add    $0x606c,%ecx
 80485e2:	c7 45 f8 23 00 00 00 	movl   $0x23,-0x8(%ebp)
 80485e9:	c7 45 f4 00 00 00 00 	movl   $0x0,-0xc(%ebp)
 80485f0:	8b 45 f8             	mov    -0x8(%ebp),%eax
 80485f3:	89 45 e8             	mov    %eax,-0x18(%ebp)
 80485f6:	8b 55 f4             	mov    -0xc(%ebp),%edx
 80485f9:	8b 45 e8             	mov    -0x18(%ebp),%eax
 80485fc:	cd 2e                	int    $0x2e
 80485fe:	89 c6                	mov    %eax,%esi
 8048600:	89 75 f0             	mov    %esi,-0x10(%ebp)
 8048603:	c7 45 e8 27 00 00 00 	movl   $0x27,-0x18(%ebp)
 804860a:	8b 45 e8             	mov    -0x18(%ebp),%eax
 804860d:	cd 2e                	int    $0x2e
 804860f:	89 c2                	mov    %eax,%edx
 8048611:	8b 81 fc ff ff ff    	mov    -0x4(%ecx),%eax
 8048617:	89 10                	mov    %edx,(%eax)
 8048619:	8b 45 f0             	mov    -0x10(%ebp),%eax
 804861c:	83 c4 14             	add    $0x14,%esp
 804861f:	5e                   	pop    %esi
 8048620:	5d                   	pop    %ebp
 8048621:	c3                   	ret    

08048622 <halt>:
 8048622:	55                   	push   %ebp
 8048623:	89 e5                	mov    %esp,%ebp
 8048625:	56                   	push   %esi
 8048626:	83 ec 14             	sub    $0x14,%esp
 8048629:	e8 d9 0a 00 00       	call   8049107 <__i686.get_pc_thunk.cx>
 804862e:	81 c1 1a 60 00 00    	add    $0x601a,%ecx
 8048634:	c7 45 f8 28 00 00 00 	movl   $0x28,-0x8(%ebp)
 804863b:	c7 45 f4 00 00 00 00 	movl   $0x0,-0xc(%ebp)
 8048642:	8b 45 f8             	mov    -0x8(%ebp),%eax
 8048645:	89 45 e8             	mov    %eax,-0x18(%ebp)
 8048648:	8b 55 f4             	mov    -0xc(%ebp),%edx
 804864b:	8b 45 e8             	mov    -0x18(%ebp),%eax
 804864e:	cd 2e                	int    $0x2e
 8048650:	89 c6                	mov    %eax,%esi
 8048652:	89 75 f0             	mov    %esi,-0x10(%ebp)
 8048655:	c7 45 e8 27 00 00 00 	movl   $0x27,-0x18(%ebp)
 804865c:	8b 45 e8             	mov    -0x18(%ebp),%eax
 804865f:	cd 2e                	int    $0x2e
 8048661:	89 c2                	mov    %eax,%edx
 8048663:	8b 81 fc ff ff ff    	mov    -0x4(%ecx),%eax
 8048669:	89 10                	mov    %edx,(%eax)
 804866b:	8b 45 f0             	mov    -0x10(%ebp),%eax
 804866e:	83 c4 14             	add    $0x14,%esp
 8048671:	5e                   	pop    %esi
 8048672:	5d                   	pop    %ebp
 8048673:	c3                   	ret    

08048674 <mmap>:
 8048674:	55                   	push   %ebp
 8048675:	89 e5                	mov    %esp,%ebp
 8048677:	56                   	push   %esi
 8048678:	83 ec 34             	sub    $0x34,%esp
 804867b:	e8 87 0a 00 00       	call   8049107 <__i686.get_pc_thunk.cx>
 8048680:	81 c1 c8 5f 00 00    	add    $0x5fc8,%ecx
 8048686:	8b 45 08             	mov    0x8(%ebp),%eax
 8048689:	89 45 d8             	mov    %eax,-0x28(%ebp)
 804868c:	8b 45 0c             	mov    0xc(%ebp),%eax
 804868f:	89 45 dc             	mov    %eax,-0x24(%ebp)
 8048692:	8b 45 10             	mov    0x10(%ebp),%eax
 8048695:	89 45 e0             	mov    %eax,-0x20(%ebp)
 8048698:	8b 45 14             	mov    0x14(%ebp),%eax
 804869b:	89 45 e4             	mov    %eax,-0x1c(%ebp)
 804869e:	8b 45 18             	mov    0x18(%ebp),%eax
 80486a1:	89 45 e8             	mov    %eax,-0x18(%ebp)
 80486a4:	8b 45 1c             	mov    0x1c(%ebp),%eax
 80486a7:	89 45 ec             	mov    %eax,-0x14(%ebp)
 80486aa:	8d 45 d8             	lea    -0x28(%ebp),%eax
 80486ad:	c7 45 f8 18 00 00 00 	movl   $0x18,-0x8(%ebp)
 80486b4:	89 45 f4             	mov    %eax,-0xc(%ebp)
 80486b7:	8b 45 f8             	mov    -0x8(%ebp),%eax
 80486ba:	89 45 c8             	mov    %eax,-0x38(%ebp)
 80486bd:	8b 55 f4             	mov    -0xc(%ebp),%edx
 80486c0:	8b 45 c8             	mov    -0x38(%ebp),%eax
 80486c3:	cd 2e                	int    $0x2e
 80486c5:	89 c6                	mov    %eax,%esi
 80486c7:	89 75 f0             	mov    %esi,-0x10(%ebp)
 80486ca:	c7 45 c8 27 00 00 00 	movl   $0x27,-0x38(%ebp)
 80486d1:	8b 45 c8             	mov    -0x38(%ebp),%eax
 80486d4:	cd 2e                	int    $0x2e
 80486d6:	89 c2                	mov    %eax,%edx
 80486d8:	8b 81 fc ff ff ff    	mov    -0x4(%ecx),%eax
 80486de:	89 10                	mov    %edx,(%eax)
 80486e0:	8b 45 f0             	mov    -0x10(%ebp),%eax
 80486e3:	83 c4 34             	add    $0x34,%esp
 80486e6:	5e                   	pop    %esi
 80486e7:	5d                   	pop    %ebp
 80486e8:	c3                   	ret    

080486e9 <munmap>:
 80486e9:	55                   	push   %ebp
 80486ea:	89 e5                	mov    %esp,%ebp
 80486ec:	56                   	push   %esi
 80486ed:	83 ec 24             	sub    $0x24,%esp
 80486f0:	e8 12 0a 00 00       	call   8049107 <__i686.get_pc_thunk.cx>
 80486f5:	81 c1 53 5f 00 00    	add    $0x5f53,%ecx
 80486fb:	8b 45 08             	mov    0x8(%ebp),%eax
 80486fe:	89 45 e8             	mov    %eax,-0x18(%ebp)
 8048701:	8b 45 0c             	mov    0xc(%ebp),%eax
 8048704:	89 45 ec             	mov    %eax,-0x14(%ebp)
 8048707:	8d 45 e8             	lea    -0x18(%ebp),%eax
 804870a:	c7 45 f8 1a 00 00 00 	movl   $0x1a,-0x8(%ebp)
 8048711:	89 45 f4             	mov    %eax,-0xc(%ebp)
 8048714:	8b 45 f8             	mov    -0x8(%ebp),%eax
 8048717:	89 45 d8             	mov    %eax,-0x28(%ebp)
 804871a:	8b 55 f4             	mov    -0xc(%ebp),%edx
 804871d:	8b 45 d8             	mov    -0x28(%ebp),%eax
 8048720:	cd 2e                	int    $0x2e
 8048722:	89 c6                	mov    %eax,%esi
 8048724:	89 75 f0             	mov    %esi,-0x10(%ebp)
 8048727:	c7 45 d8 27 00 00 00 	movl   $0x27,-0x28(%ebp)
 804872e:	8b 45 d8             	mov    -0x28(%ebp),%eax
 8048731:	cd 2e                	int    $0x2e
 8048733:	89 c2                	mov    %eax,%edx
 8048735:	8b 81 fc ff ff ff    	mov    -0x4(%ecx),%eax
 804873b:	89 10                	mov    %edx,(%eax)
 804873d:	8b 45 f0             	mov    -0x10(%ebp),%eax
 8048740:	83 c4 24             	add    $0x24,%esp
 8048743:	5e                   	pop    %esi
 8048744:	5d                   	pop    %ebp
 8048745:	c3                   	ret    

08048746 <sync>:
 8048746:	55                   	push   %ebp
 8048747:	89 e5                	mov    %esp,%ebp
 8048749:	56                   	push   %esi
 804874a:	83 ec 14             	sub    $0x14,%esp
 804874d:	e8 b5 09 00 00       	call   8049107 <__i686.get_pc_thunk.cx>
 8048752:	81 c1 f6 5e 00 00    	add    $0x5ef6,%ecx
 8048758:	c7 45 f8 0f 00 00 00 	movl   $0xf,-0x8(%ebp)
 804875f:	c7 45 f4 00 00 00 00 	movl   $0x0,-0xc(%ebp)
 8048766:	8b 45 f8             	mov    -0x8(%ebp),%eax
 8048769:	89 45 e8             	mov    %eax,-0x18(%ebp)
 804876c:	8b 55 f4             	mov    -0xc(%ebp),%edx
 804876f:	8b 45 e8             	mov    -0x18(%ebp),%eax
 8048772:	cd 2e                	int    $0x2e
 8048774:	89 c6                	mov    %eax,%esi
 8048776:	89 75 f0             	mov    %esi,-0x10(%ebp)
 8048779:	c7 45 e8 27 00 00 00 	movl   $0x27,-0x18(%ebp)
 8048780:	8b 45 e8             	mov    -0x18(%ebp),%eax
 8048783:	cd 2e                	int    $0x2e
 8048785:	89 c2                	mov    %eax,%edx
 8048787:	8b 81 fc ff ff ff    	mov    -0x4(%ecx),%eax
 804878d:	89 10                	mov    %edx,(%eax)
 804878f:	83 c4 14             	add    $0x14,%esp
 8048792:	5e                   	pop    %esi
 8048793:	5d                   	pop    %ebp
 8048794:	c3                   	ret    

08048795 <open>:
 8048795:	55                   	push   %ebp
 8048796:	89 e5                	mov    %esp,%ebp
 8048798:	56                   	push   %esi
 8048799:	53                   	push   %ebx
 804879a:	83 ec 40             	sub    $0x40,%esp
 804879d:	e8 69 09 00 00       	call   804910b <__i686.get_pc_thunk.bx>
 80487a2:	81 c3 a6 5e 00 00    	add    $0x5ea6,%ebx
 80487a8:	8b 45 08             	mov    0x8(%ebp),%eax
 80487ab:	89 04 24             	mov    %eax,(%esp)
 80487ae:	e8 22 2d 00 00       	call   804b4d5 <strlen>
 80487b3:	89 45 e0             	mov    %eax,-0x20(%ebp)
 80487b6:	8b 45 08             	mov    0x8(%ebp),%eax
 80487b9:	89 45 dc             	mov    %eax,-0x24(%ebp)
 80487bc:	8b 45 0c             	mov    0xc(%ebp),%eax
 80487bf:	89 45 e4             	mov    %eax,-0x1c(%ebp)
 80487c2:	8b 45 10             	mov    0x10(%ebp),%eax
 80487c5:	89 45 e8             	mov    %eax,-0x18(%ebp)
 80487c8:	8d 45 dc             	lea    -0x24(%ebp),%eax
 80487cb:	c7 45 f4 05 00 00 00 	movl   $0x5,-0xc(%ebp)
 80487d2:	89 45 f0             	mov    %eax,-0x10(%ebp)
 80487d5:	8b 45 f4             	mov    -0xc(%ebp),%eax
 80487d8:	89 45 d4             	mov    %eax,-0x2c(%ebp)
 80487db:	8b 55 f0             	mov    -0x10(%ebp),%edx
 80487de:	8b 45 d4             	mov    -0x2c(%ebp),%eax
 80487e1:	cd 2e                	int    $0x2e
 80487e3:	89 c6                	mov    %eax,%esi
 80487e5:	89 75 ec             	mov    %esi,-0x14(%ebp)
 80487e8:	c7 45 d4 27 00 00 00 	movl   $0x27,-0x2c(%ebp)
 80487ef:	8b 45 d4             	mov    -0x2c(%ebp),%eax
 80487f2:	cd 2e                	int    $0x2e
 80487f4:	89 c2                	mov    %eax,%edx
 80487f6:	8b 83 fc ff ff ff    	mov    -0x4(%ebx),%eax
 80487fc:	89 10                	mov    %edx,(%eax)
 80487fe:	8b 45 ec             	mov    -0x14(%ebp),%eax
 8048801:	83 c4 40             	add    $0x40,%esp
 8048804:	5b                   	pop    %ebx
 8048805:	5e                   	pop    %esi
 8048806:	5d                   	pop    %ebp
 8048807:	c3                   	ret    

08048808 <lseek>:
 8048808:	55                   	push   %ebp
 8048809:	89 e5                	mov    %esp,%ebp
 804880b:	56                   	push   %esi
 804880c:	83 ec 24             	sub    $0x24,%esp
 804880f:	e8 f3 08 00 00       	call   8049107 <__i686.get_pc_thunk.cx>
 8048814:	81 c1 34 5e 00 00    	add    $0x5e34,%ecx
 804881a:	8b 45 08             	mov    0x8(%ebp),%eax
 804881d:	89 45 e4             	mov    %eax,-0x1c(%ebp)
 8048820:	8b 45 0c             	mov    0xc(%ebp),%eax
 8048823:	89 45 e8             	mov    %eax,-0x18(%ebp)
 8048826:	8b 45 10             	mov    0x10(%ebp),%eax
 8048829:	89 45 ec             	mov    %eax,-0x14(%ebp)
 804882c:	8d 45 e4             	lea    -0x1c(%ebp),%eax
 804882f:	c7 45 f8 0e 00 00 00 	movl   $0xe,-0x8(%ebp)
 8048836:	89 45 f4             	mov    %eax,-0xc(%ebp)
 8048839:	8b 45 f8             	mov    -0x8(%ebp),%eax
 804883c:	89 45 d8             	mov    %eax,-0x28(%ebp)
 804883f:	8b 55 f4             	mov    -0xc(%ebp),%edx
 8048842:	8b 45 d8             	mov    -0x28(%ebp),%eax
 8048845:	cd 2e                	int    $0x2e
 8048847:	89 c6                	mov    %eax,%esi
 8048849:	89 75 f0             	mov    %esi,-0x10(%ebp)
 804884c:	c7 45 d8 27 00 00 00 	movl   $0x27,-0x28(%ebp)
 8048853:	8b 45 d8             	mov    -0x28(%ebp),%eax
 8048856:	cd 2e                	int    $0x2e
 8048858:	89 c2                	mov    %eax,%edx
 804885a:	8b 81 fc ff ff ff    	mov    -0x4(%ecx),%eax
 8048860:	89 10                	mov    %edx,(%eax)
 8048862:	8b 45 f0             	mov    -0x10(%ebp),%eax
 8048865:	83 c4 24             	add    $0x24,%esp
 8048868:	5e                   	pop    %esi
 8048869:	5d                   	pop    %ebp
 804886a:	c3                   	ret    

0804886b <read>:
 804886b:	55                   	push   %ebp
 804886c:	89 e5                	mov    %esp,%ebp
 804886e:	56                   	push   %esi
 804886f:	83 ec 24             	sub    $0x24,%esp
 8048872:	e8 90 08 00 00       	call   8049107 <__i686.get_pc_thunk.cx>
 8048877:	81 c1 d1 5d 00 00    	add    $0x5dd1,%ecx
 804887d:	8b 45 08             	mov    0x8(%ebp),%eax
 8048880:	89 45 e4             	mov    %eax,-0x1c(%ebp)
 8048883:	8b 45 0c             	mov    0xc(%ebp),%eax
 8048886:	89 45 e8             	mov    %eax,-0x18(%ebp)
 8048889:	8b 45 10             	mov    0x10(%ebp),%eax
 804888c:	89 45 ec             	mov    %eax,-0x14(%ebp)
 804888f:	8d 45 e4             	lea    -0x1c(%ebp),%eax
 8048892:	c7 45 f8 03 00 00 00 	movl   $0x3,-0x8(%ebp)
 8048899:	89 45 f4             	mov    %eax,-0xc(%ebp)
 804889c:	8b 45 f8             	mov    -0x8(%ebp),%eax
 804889f:	89 45 d8             	mov    %eax,-0x28(%ebp)
 80488a2:	8b 55 f4             	mov    -0xc(%ebp),%edx
 80488a5:	8b 45 d8             	mov    -0x28(%ebp),%eax
 80488a8:	cd 2e                	int    $0x2e
 80488aa:	89 c6                	mov    %eax,%esi
 80488ac:	89 75 f0             	mov    %esi,-0x10(%ebp)
 80488af:	c7 45 d8 27 00 00 00 	movl   $0x27,-0x28(%ebp)
 80488b6:	8b 45 d8             	mov    -0x28(%ebp),%eax
 80488b9:	cd 2e                	int    $0x2e
 80488bb:	89 c2                	mov    %eax,%edx
 80488bd:	8b 81 fc ff ff ff    	mov    -0x4(%ecx),%eax
 80488c3:	89 10                	mov    %edx,(%eax)
 80488c5:	8b 45 f0             	mov    -0x10(%ebp),%eax
 80488c8:	83 c4 24             	add    $0x24,%esp
 80488cb:	5e                   	pop    %esi
 80488cc:	5d                   	pop    %ebp
 80488cd:	c3                   	ret    

080488ce <write>:
 80488ce:	55                   	push   %ebp
 80488cf:	89 e5                	mov    %esp,%ebp
 80488d1:	56                   	push   %esi
 80488d2:	83 ec 24             	sub    $0x24,%esp
 80488d5:	e8 2d 08 00 00       	call   8049107 <__i686.get_pc_thunk.cx>
 80488da:	81 c1 6e 5d 00 00    	add    $0x5d6e,%ecx
 80488e0:	8b 45 08             	mov    0x8(%ebp),%eax
 80488e3:	89 45 e4             	mov    %eax,-0x1c(%ebp)
 80488e6:	8b 45 0c             	mov    0xc(%ebp),%eax
 80488e9:	89 45 e8             	mov    %eax,-0x18(%ebp)
 80488ec:	8b 45 10             	mov    0x10(%ebp),%eax
 80488ef:	89 45 ec             	mov    %eax,-0x14(%ebp)
 80488f2:	8d 45 e4             	lea    -0x1c(%ebp),%eax
 80488f5:	c7 45 f8 04 00 00 00 	movl   $0x4,-0x8(%ebp)
 80488fc:	89 45 f4             	mov    %eax,-0xc(%ebp)
 80488ff:	8b 45 f8             	mov    -0x8(%ebp),%eax
 8048902:	89 45 d8             	mov    %eax,-0x28(%ebp)
 8048905:	8b 55 f4             	mov    -0xc(%ebp),%edx
 8048908:	8b 45 d8             	mov    -0x28(%ebp),%eax
 804890b:	cd 2e                	int    $0x2e
 804890d:	89 c6                	mov    %eax,%esi
 804890f:	89 75 f0             	mov    %esi,-0x10(%ebp)
 8048912:	c7 45 d8 27 00 00 00 	movl   $0x27,-0x28(%ebp)
 8048919:	8b 45 d8             	mov    -0x28(%ebp),%eax
 804891c:	cd 2e                	int    $0x2e
 804891e:	89 c2                	mov    %eax,%edx
 8048920:	8b 81 fc ff ff ff    	mov    -0x4(%ecx),%eax
 8048926:	89 10                	mov    %edx,(%eax)
 8048928:	8b 45 f0             	mov    -0x10(%ebp),%eax
 804892b:	83 c4 24             	add    $0x24,%esp
 804892e:	5e                   	pop    %esi
 804892f:	5d                   	pop    %ebp
 8048930:	c3                   	ret    

08048931 <close>:
 8048931:	55                   	push   %ebp
 8048932:	89 e5                	mov    %esp,%ebp
 8048934:	56                   	push   %esi
 8048935:	83 ec 14             	sub    $0x14,%esp
 8048938:	e8 ca 07 00 00       	call   8049107 <__i686.get_pc_thunk.cx>
 804893d:	81 c1 0b 5d 00 00    	add    $0x5d0b,%ecx
 8048943:	8b 45 08             	mov    0x8(%ebp),%eax
 8048946:	c7 45 f8 06 00 00 00 	movl   $0x6,-0x8(%ebp)
 804894d:	89 45 f4             	mov    %eax,-0xc(%ebp)
 8048950:	8b 45 f8             	mov    -0x8(%ebp),%eax
 8048953:	89 45 e8             	mov    %eax,-0x18(%ebp)
 8048956:	8b 55 f4             	mov    -0xc(%ebp),%edx
 8048959:	8b 45 e8             	mov    -0x18(%ebp),%eax
 804895c:	cd 2e                	int    $0x2e
 804895e:	89 c6                	mov    %eax,%esi
 8048960:	89 75 f0             	mov    %esi,-0x10(%ebp)
 8048963:	c7 45 e8 27 00 00 00 	movl   $0x27,-0x18(%ebp)
 804896a:	8b 45 e8             	mov    -0x18(%ebp),%eax
 804896d:	cd 2e                	int    $0x2e
 804896f:	89 c2                	mov    %eax,%edx
 8048971:	8b 81 fc ff ff ff    	mov    -0x4(%ecx),%eax
 8048977:	89 10                	mov    %edx,(%eax)
 8048979:	8b 45 f0             	mov    -0x10(%ebp),%eax
 804897c:	83 c4 14             	add    $0x14,%esp
 804897f:	5e                   	pop    %esi
 8048980:	5d                   	pop    %ebp
 8048981:	c3                   	ret    

08048982 <dup>:
 8048982:	55                   	push   %ebp
 8048983:	89 e5                	mov    %esp,%ebp
 8048985:	56                   	push   %esi
 8048986:	83 ec 14             	sub    $0x14,%esp
 8048989:	e8 79 07 00 00       	call   8049107 <__i686.get_pc_thunk.cx>
 804898e:	81 c1 ba 5c 00 00    	add    $0x5cba,%ecx
 8048994:	8b 45 08             	mov    0x8(%ebp),%eax
 8048997:	c7 45 f8 11 00 00 00 	movl   $0x11,-0x8(%ebp)
 804899e:	89 45 f4             	mov    %eax,-0xc(%ebp)
 80489a1:	8b 45 f8             	mov    -0x8(%ebp),%eax
 80489a4:	89 45 e8             	mov    %eax,-0x18(%ebp)
 80489a7:	8b 55 f4             	mov    -0xc(%ebp),%edx
 80489aa:	8b 45 e8             	mov    -0x18(%ebp),%eax
 80489ad:	cd 2e                	int    $0x2e
 80489af:	89 c6                	mov    %eax,%esi
 80489b1:	89 75 f0             	mov    %esi,-0x10(%ebp)
 80489b4:	c7 45 e8 27 00 00 00 	movl   $0x27,-0x18(%ebp)
 80489bb:	8b 45 e8             	mov    -0x18(%ebp),%eax
 80489be:	cd 2e                	int    $0x2e
 80489c0:	89 c2                	mov    %eax,%edx
 80489c2:	8b 81 fc ff ff ff    	mov    -0x4(%ecx),%eax
 80489c8:	89 10                	mov    %edx,(%eax)
 80489ca:	8b 45 f0             	mov    -0x10(%ebp),%eax
 80489cd:	83 c4 14             	add    $0x14,%esp
 80489d0:	5e                   	pop    %esi
 80489d1:	5d                   	pop    %ebp
 80489d2:	c3                   	ret    

080489d3 <dup2>:
 80489d3:	55                   	push   %ebp
 80489d4:	89 e5                	mov    %esp,%ebp
 80489d6:	56                   	push   %esi
 80489d7:	83 ec 24             	sub    $0x24,%esp
 80489da:	e8 28 07 00 00       	call   8049107 <__i686.get_pc_thunk.cx>
 80489df:	81 c1 69 5c 00 00    	add    $0x5c69,%ecx
 80489e5:	8b 45 08             	mov    0x8(%ebp),%eax
 80489e8:	89 45 e8             	mov    %eax,-0x18(%ebp)
 80489eb:	8b 45 0c             	mov    0xc(%ebp),%eax
 80489ee:	89 45 ec             	mov    %eax,-0x14(%ebp)
 80489f1:	8d 45 e8             	lea    -0x18(%ebp),%eax
 80489f4:	c7 45 f8 2b 00 00 00 	movl   $0x2b,-0x8(%ebp)
 80489fb:	89 45 f4             	mov    %eax,-0xc(%ebp)
 80489fe:	8b 45 f8             	mov    -0x8(%ebp),%eax
 8048a01:	89 45 d8             	mov    %eax,-0x28(%ebp)
 8048a04:	8b 55 f4             	mov    -0xc(%ebp),%edx
 8048a07:	8b 45 d8             	mov    -0x28(%ebp),%eax
 8048a0a:	cd 2e                	int    $0x2e
 8048a0c:	89 c6                	mov    %eax,%esi
 8048a0e:	89 75 f0             	mov    %esi,-0x10(%ebp)
 8048a11:	c7 45 d8 27 00 00 00 	movl   $0x27,-0x28(%ebp)
 8048a18:	8b 45 d8             	mov    -0x28(%ebp),%eax
 8048a1b:	cd 2e                	int    $0x2e
 8048a1d:	89 c2                	mov    %eax,%edx
 8048a1f:	8b 81 fc ff ff ff    	mov    -0x4(%ecx),%eax
 8048a25:	89 10                	mov    %edx,(%eax)
 8048a27:	8b 45 f0             	mov    -0x10(%ebp),%eax
 8048a2a:	83 c4 24             	add    $0x24,%esp
 8048a2d:	5e                   	pop    %esi
 8048a2e:	5d                   	pop    %ebp
 8048a2f:	c3                   	ret    

08048a30 <mkdir>:
 8048a30:	55                   	push   %ebp
 8048a31:	89 e5                	mov    %esp,%ebp
 8048a33:	56                   	push   %esi
 8048a34:	53                   	push   %ebx
 8048a35:	83 ec 40             	sub    $0x40,%esp
 8048a38:	e8 ce 06 00 00       	call   804910b <__i686.get_pc_thunk.bx>
 8048a3d:	81 c3 0b 5c 00 00    	add    $0x5c0b,%ebx
 8048a43:	8b 45 08             	mov    0x8(%ebp),%eax
 8048a46:	89 04 24             	mov    %eax,(%esp)
 8048a49:	e8 87 2a 00 00       	call   804b4d5 <strlen>
 8048a4e:	89 45 e4             	mov    %eax,-0x1c(%ebp)
 8048a51:	8b 45 08             	mov    0x8(%ebp),%eax
 8048a54:	89 45 e0             	mov    %eax,-0x20(%ebp)
 8048a57:	8b 45 0c             	mov    0xc(%ebp),%eax
 8048a5a:	89 45 e8             	mov    %eax,-0x18(%ebp)
 8048a5d:	8d 45 e0             	lea    -0x20(%ebp),%eax
 8048a60:	c7 45 f4 16 00 00 00 	movl   $0x16,-0xc(%ebp)
 8048a67:	89 45 f0             	mov    %eax,-0x10(%ebp)
 8048a6a:	8b 45 f4             	mov    -0xc(%ebp),%eax
 8048a6d:	89 45 d4             	mov    %eax,-0x2c(%ebp)
 8048a70:	8b 55 f0             	mov    -0x10(%ebp),%edx
 8048a73:	8b 45 d4             	mov    -0x2c(%ebp),%eax
 8048a76:	cd 2e                	int    $0x2e
 8048a78:	89 c6                	mov    %eax,%esi
 8048a7a:	89 75 ec             	mov    %esi,-0x14(%ebp)
 8048a7d:	c7 45 d4 27 00 00 00 	movl   $0x27,-0x2c(%ebp)
 8048a84:	8b 45 d4             	mov    -0x2c(%ebp),%eax
 8048a87:	cd 2e                	int    $0x2e
 8048a89:	89 c2                	mov    %eax,%edx
 8048a8b:	8b 83 fc ff ff ff    	mov    -0x4(%ebx),%eax
 8048a91:	89 10                	mov    %edx,(%eax)
 8048a93:	8b 45 ec             	mov    -0x14(%ebp),%eax
 8048a96:	83 c4 40             	add    $0x40,%esp
 8048a99:	5b                   	pop    %ebx
 8048a9a:	5e                   	pop    %esi
 8048a9b:	5d                   	pop    %ebp
 8048a9c:	c3                   	ret    

08048a9d <rmdir>:
 8048a9d:	55                   	push   %ebp
 8048a9e:	89 e5                	mov    %esp,%ebp
 8048aa0:	56                   	push   %esi
 8048aa1:	53                   	push   %ebx
 8048aa2:	83 ec 40             	sub    $0x40,%esp
 8048aa5:	e8 61 06 00 00       	call   804910b <__i686.get_pc_thunk.bx>
 8048aaa:	81 c3 9e 5b 00 00    	add    $0x5b9e,%ebx
 8048ab0:	8b 45 08             	mov    0x8(%ebp),%eax
 8048ab3:	89 04 24             	mov    %eax,(%esp)
 8048ab6:	e8 1a 2a 00 00       	call   804b4d5 <strlen>
 8048abb:	89 45 e8             	mov    %eax,-0x18(%ebp)
 8048abe:	8b 45 08             	mov    0x8(%ebp),%eax
 8048ac1:	89 45 e4             	mov    %eax,-0x1c(%ebp)
 8048ac4:	8d 45 e4             	lea    -0x1c(%ebp),%eax
 8048ac7:	c7 45 f4 15 00 00 00 	movl   $0x15,-0xc(%ebp)
 8048ace:	89 45 f0             	mov    %eax,-0x10(%ebp)
 8048ad1:	8b 45 f4             	mov    -0xc(%ebp),%eax
 8048ad4:	89 45 d4             	mov    %eax,-0x2c(%ebp)
 8048ad7:	8b 55 f0             	mov    -0x10(%ebp),%edx
 8048ada:	8b 45 d4             	mov    -0x2c(%ebp),%eax
 8048add:	cd 2e                	int    $0x2e
 8048adf:	89 c6                	mov    %eax,%esi
 8048ae1:	89 75 ec             	mov    %esi,-0x14(%ebp)
 8048ae4:	c7 45 d4 27 00 00 00 	movl   $0x27,-0x2c(%ebp)
 8048aeb:	8b 45 d4             	mov    -0x2c(%ebp),%eax
 8048aee:	cd 2e                	int    $0x2e
 8048af0:	89 c2                	mov    %eax,%edx
 8048af2:	8b 83 fc ff ff ff    	mov    -0x4(%ebx),%eax
 8048af8:	89 10                	mov    %edx,(%eax)
 8048afa:	8b 45 ec             	mov    -0x14(%ebp),%eax
 8048afd:	83 c4 40             	add    $0x40,%esp
 8048b00:	5b                   	pop    %ebx
 8048b01:	5e                   	pop    %esi
 8048b02:	5d                   	pop    %ebp
 8048b03:	c3                   	ret    

08048b04 <unlink>:
 8048b04:	55                   	push   %ebp
 8048b05:	89 e5                	mov    %esp,%ebp
 8048b07:	56                   	push   %esi
 8048b08:	53                   	push   %ebx
 8048b09:	83 ec 40             	sub    $0x40,%esp
 8048b0c:	e8 fa 05 00 00       	call   804910b <__i686.get_pc_thunk.bx>
 8048b11:	81 c3 37 5b 00 00    	add    $0x5b37,%ebx
 8048b17:	8b 45 08             	mov    0x8(%ebp),%eax
 8048b1a:	89 04 24             	mov    %eax,(%esp)
 8048b1d:	e8 b3 29 00 00       	call   804b4d5 <strlen>
 8048b22:	89 45 e8             	mov    %eax,-0x18(%ebp)
 8048b25:	8b 45 08             	mov    0x8(%ebp),%eax
 8048b28:	89 45 e4             	mov    %eax,-0x1c(%ebp)
 8048b2b:	8d 45 e4             	lea    -0x1c(%ebp),%eax
 8048b2e:	c7 45 f4 09 00 00 00 	movl   $0x9,-0xc(%ebp)
 8048b35:	89 45 f0             	mov    %eax,-0x10(%ebp)
 8048b38:	8b 45 f4             	mov    -0xc(%ebp),%eax
 8048b3b:	89 45 d4             	mov    %eax,-0x2c(%ebp)
 8048b3e:	8b 55 f0             	mov    -0x10(%ebp),%edx
 8048b41:	8b 45 d4             	mov    -0x2c(%ebp),%eax
 8048b44:	cd 2e                	int    $0x2e
 8048b46:	89 c6                	mov    %eax,%esi
 8048b48:	89 75 ec             	mov    %esi,-0x14(%ebp)
 8048b4b:	c7 45 d4 27 00 00 00 	movl   $0x27,-0x2c(%ebp)
 8048b52:	8b 45 d4             	mov    -0x2c(%ebp),%eax
 8048b55:	cd 2e                	int    $0x2e
 8048b57:	89 c2                	mov    %eax,%edx
 8048b59:	8b 83 fc ff ff ff    	mov    -0x4(%ebx),%eax
 8048b5f:	89 10                	mov    %edx,(%eax)
 8048b61:	8b 45 ec             	mov    -0x14(%ebp),%eax
 8048b64:	83 c4 40             	add    $0x40,%esp
 8048b67:	5b                   	pop    %ebx
 8048b68:	5e                   	pop    %esi
 8048b69:	5d                   	pop    %ebp
 8048b6a:	c3                   	ret    

08048b6b <link>:
 8048b6b:	55                   	push   %ebp
 8048b6c:	89 e5                	mov    %esp,%ebp
 8048b6e:	56                   	push   %esi
 8048b6f:	53                   	push   %ebx
 8048b70:	83 ec 40             	sub    $0x40,%esp
 8048b73:	e8 93 05 00 00       	call   804910b <__i686.get_pc_thunk.bx>
 8048b78:	81 c3 d0 5a 00 00    	add    $0x5ad0,%ebx
 8048b7e:	8b 45 08             	mov    0x8(%ebp),%eax
 8048b81:	89 04 24             	mov    %eax,(%esp)
 8048b84:	e8 4c 29 00 00       	call   804b4d5 <strlen>
 8048b89:	89 45 e8             	mov    %eax,-0x18(%ebp)
 8048b8c:	8b 45 08             	mov    0x8(%ebp),%eax
 8048b8f:	89 45 e4             	mov    %eax,-0x1c(%ebp)
 8048b92:	8b 45 0c             	mov    0xc(%ebp),%eax
 8048b95:	89 04 24             	mov    %eax,(%esp)
 8048b98:	e8 38 29 00 00       	call   804b4d5 <strlen>
 8048b9d:	89 45 e0             	mov    %eax,-0x20(%ebp)
 8048ba0:	8b 45 0c             	mov    0xc(%ebp),%eax
 8048ba3:	89 45 dc             	mov    %eax,-0x24(%ebp)
 8048ba6:	8d 45 dc             	lea    -0x24(%ebp),%eax
 8048ba9:	c7 45 f4 08 00 00 00 	movl   $0x8,-0xc(%ebp)
 8048bb0:	89 45 f0             	mov    %eax,-0x10(%ebp)
 8048bb3:	8b 45 f4             	mov    -0xc(%ebp),%eax
 8048bb6:	89 45 d4             	mov    %eax,-0x2c(%ebp)
 8048bb9:	8b 55 f0             	mov    -0x10(%ebp),%edx
 8048bbc:	8b 45 d4             	mov    -0x2c(%ebp),%eax
 8048bbf:	cd 2e                	int    $0x2e
 8048bc1:	89 c6                	mov    %eax,%esi
 8048bc3:	89 75 ec             	mov    %esi,-0x14(%ebp)
 8048bc6:	c7 45 d4 27 00 00 00 	movl   $0x27,-0x2c(%ebp)
 8048bcd:	8b 45 d4             	mov    -0x2c(%ebp),%eax
 8048bd0:	cd 2e                	int    $0x2e
 8048bd2:	89 c2                	mov    %eax,%edx
 8048bd4:	8b 83 fc ff ff ff    	mov    -0x4(%ebx),%eax
 8048bda:	89 10                	mov    %edx,(%eax)
 8048bdc:	8b 45 ec             	mov    -0x14(%ebp),%eax
 8048bdf:	83 c4 40             	add    $0x40,%esp
 8048be2:	5b                   	pop    %ebx
 8048be3:	5e                   	pop    %esi
 8048be4:	5d                   	pop    %ebp
 8048be5:	c3                   	ret    

08048be6 <rename>:
 8048be6:	55                   	push   %ebp
 8048be7:	89 e5                	mov    %esp,%ebp
 8048be9:	56                   	push   %esi
 8048bea:	53                   	push   %ebx
 8048beb:	83 ec 40             	sub    $0x40,%esp
 8048bee:	e8 18 05 00 00       	call   804910b <__i686.get_pc_thunk.bx>
 8048bf3:	81 c3 55 5a 00 00    	add    $0x5a55,%ebx
 8048bf9:	8b 45 08             	mov    0x8(%ebp),%eax
 8048bfc:	89 04 24             	mov    %eax,(%esp)
 8048bff:	e8 d1 28 00 00       	call   804b4d5 <strlen>
 8048c04:	89 45 e0             	mov    %eax,-0x20(%ebp)
 8048c07:	8b 45 08             	mov    0x8(%ebp),%eax
 8048c0a:	89 45 dc             	mov    %eax,-0x24(%ebp)
 8048c0d:	8b 45 0c             	mov    0xc(%ebp),%eax
 8048c10:	89 04 24             	mov    %eax,(%esp)
 8048c13:	e8 bd 28 00 00       	call   804b4d5 <strlen>
 8048c18:	89 45 e8             	mov    %eax,-0x18(%ebp)
 8048c1b:	8b 45 0c             	mov    0xc(%ebp),%eax
 8048c1e:	89 45 e4             	mov    %eax,-0x1c(%ebp)
 8048c21:	8d 45 dc             	lea    -0x24(%ebp),%eax
 8048c24:	c7 45 f4 1b 00 00 00 	movl   $0x1b,-0xc(%ebp)
 8048c2b:	89 45 f0             	mov    %eax,-0x10(%ebp)
 8048c2e:	8b 45 f4             	mov    -0xc(%ebp),%eax
 8048c31:	89 45 d4             	mov    %eax,-0x2c(%ebp)
 8048c34:	8b 55 f0             	mov    -0x10(%ebp),%edx
 8048c37:	8b 45 d4             	mov    -0x2c(%ebp),%eax
 8048c3a:	cd 2e                	int    $0x2e
 8048c3c:	89 c6                	mov    %eax,%esi
 8048c3e:	89 75 ec             	mov    %esi,-0x14(%ebp)
 8048c41:	c7 45 d4 27 00 00 00 	movl   $0x27,-0x2c(%ebp)
 8048c48:	8b 45 d4             	mov    -0x2c(%ebp),%eax
 8048c4b:	cd 2e                	int    $0x2e
 8048c4d:	89 c2                	mov    %eax,%edx
 8048c4f:	8b 83 fc ff ff ff    	mov    -0x4(%ebx),%eax
 8048c55:	89 10                	mov    %edx,(%eax)
 8048c57:	8b 45 ec             	mov    -0x14(%ebp),%eax
 8048c5a:	83 c4 40             	add    $0x40,%esp
 8048c5d:	5b                   	pop    %ebx
 8048c5e:	5e                   	pop    %esi
 8048c5f:	5d                   	pop    %ebp
 8048c60:	c3                   	ret    

08048c61 <chdir>:
 8048c61:	55                   	push   %ebp
 8048c62:	89 e5                	mov    %esp,%ebp
 8048c64:	56                   	push   %esi
 8048c65:	53                   	push   %ebx
 8048c66:	83 ec 40             	sub    $0x40,%esp
 8048c69:	e8 9d 04 00 00       	call   804910b <__i686.get_pc_thunk.bx>
 8048c6e:	81 c3 da 59 00 00    	add    $0x59da,%ebx
 8048c74:	8b 45 08             	mov    0x8(%ebp),%eax
 8048c77:	89 04 24             	mov    %eax,(%esp)
 8048c7a:	e8 56 28 00 00       	call   804b4d5 <strlen>
 8048c7f:	89 45 e8             	mov    %eax,-0x18(%ebp)
 8048c82:	8b 45 08             	mov    0x8(%ebp),%eax
 8048c85:	89 45 e4             	mov    %eax,-0x1c(%ebp)
 8048c88:	8d 45 e4             	lea    -0x1c(%ebp),%eax
 8048c8b:	c7 45 f4 0b 00 00 00 	movl   $0xb,-0xc(%ebp)
 8048c92:	89 45 f0             	mov    %eax,-0x10(%ebp)
 8048c95:	8b 45 f4             	mov    -0xc(%ebp),%eax
 8048c98:	89 45 d4             	mov    %eax,-0x2c(%ebp)
 8048c9b:	8b 55 f0             	mov    -0x10(%ebp),%edx
 8048c9e:	8b 45 d4             	mov    -0x2c(%ebp),%eax
 8048ca1:	cd 2e                	int    $0x2e
 8048ca3:	89 c6                	mov    %eax,%esi
 8048ca5:	89 75 ec             	mov    %esi,-0x14(%ebp)
 8048ca8:	c7 45 d4 27 00 00 00 	movl   $0x27,-0x2c(%ebp)
 8048caf:	8b 45 d4             	mov    -0x2c(%ebp),%eax
 8048cb2:	cd 2e                	int    $0x2e
 8048cb4:	89 c2                	mov    %eax,%edx
 8048cb6:	8b 83 fc ff ff ff    	mov    -0x4(%ebx),%eax
 8048cbc:	89 10                	mov    %edx,(%eax)
 8048cbe:	8b 45 ec             	mov    -0x14(%ebp),%eax
 8048cc1:	83 c4 40             	add    $0x40,%esp
 8048cc4:	5b                   	pop    %ebx
 8048cc5:	5e                   	pop    %esi
 8048cc6:	5d                   	pop    %ebp
 8048cc7:	c3                   	ret    

08048cc8 <get_free_mem>:
 8048cc8:	55                   	push   %ebp
 8048cc9:	89 e5                	mov    %esp,%ebp
 8048ccb:	56                   	push   %esi
 8048ccc:	83 ec 14             	sub    $0x14,%esp
 8048ccf:	e8 33 04 00 00       	call   8049107 <__i686.get_pc_thunk.cx>
 8048cd4:	81 c1 74 59 00 00    	add    $0x5974,%ecx
 8048cda:	c7 45 f8 29 00 00 00 	movl   $0x29,-0x8(%ebp)
 8048ce1:	c7 45 f4 00 00 00 00 	movl   $0x0,-0xc(%ebp)
 8048ce8:	8b 45 f8             	mov    -0x8(%ebp),%eax
 8048ceb:	89 45 e8             	mov    %eax,-0x18(%ebp)
 8048cee:	8b 55 f4             	mov    -0xc(%ebp),%edx
 8048cf1:	8b 45 e8             	mov    -0x18(%ebp),%eax
 8048cf4:	cd 2e                	int    $0x2e
 8048cf6:	89 c6                	mov    %eax,%esi
 8048cf8:	89 75 f0             	mov    %esi,-0x10(%ebp)
 8048cfb:	c7 45 e8 27 00 00 00 	movl   $0x27,-0x18(%ebp)
 8048d02:	8b 45 e8             	mov    -0x18(%ebp),%eax
 8048d05:	cd 2e                	int    $0x2e
 8048d07:	89 c2                	mov    %eax,%edx
 8048d09:	8b 81 fc ff ff ff    	mov    -0x4(%ecx),%eax
 8048d0f:	89 10                	mov    %edx,(%eax)
 8048d11:	8b 45 f0             	mov    -0x10(%ebp),%eax
 8048d14:	83 c4 14             	add    $0x14,%esp
 8048d17:	5e                   	pop    %esi
 8048d18:	5d                   	pop    %ebp
 8048d19:	c3                   	ret    

08048d1a <execve>:
 8048d1a:	55                   	push   %ebp
 8048d1b:	89 e5                	mov    %esp,%ebp
 8048d1d:	56                   	push   %esi
 8048d1e:	53                   	push   %ebx
 8048d1f:	83 ec 50             	sub    $0x50,%esp
 8048d22:	e8 e4 03 00 00       	call   804910b <__i686.get_pc_thunk.bx>
 8048d27:	81 c3 21 59 00 00    	add    $0x5921,%ebx
 8048d2d:	8b 45 08             	mov    0x8(%ebp),%eax
 8048d30:	89 04 24             	mov    %eax,(%esp)
 8048d33:	e8 9d 27 00 00       	call   804b4d5 <strlen>
 8048d38:	89 45 d4             	mov    %eax,-0x2c(%ebp)
 8048d3b:	8b 45 08             	mov    0x8(%ebp),%eax
 8048d3e:	89 45 d0             	mov    %eax,-0x30(%ebp)
 8048d41:	c7 45 f4 00 00 00 00 	movl   $0x0,-0xc(%ebp)
 8048d48:	eb 04                	jmp    8048d4e <execve+0x34>
 8048d4a:	83 45 f4 01          	addl   $0x1,-0xc(%ebp)
 8048d4e:	8b 45 f4             	mov    -0xc(%ebp),%eax
 8048d51:	c1 e0 02             	shl    $0x2,%eax
 8048d54:	03 45 0c             	add    0xc(%ebp),%eax
 8048d57:	8b 00                	mov    (%eax),%eax
 8048d59:	85 c0                	test   %eax,%eax
 8048d5b:	75 ed                	jne    8048d4a <execve+0x30>
 8048d5d:	8b 45 f4             	mov    -0xc(%ebp),%eax
 8048d60:	89 45 dc             	mov    %eax,-0x24(%ebp)
 8048d63:	8b 45 dc             	mov    -0x24(%ebp),%eax
 8048d66:	83 c0 01             	add    $0x1,%eax
 8048d69:	c1 e0 03             	shl    $0x3,%eax
 8048d6c:	89 04 24             	mov    %eax,(%esp)
 8048d6f:	e8 74 22 00 00       	call   804afe8 <malloc>
 8048d74:	89 45 d8             	mov    %eax,-0x28(%ebp)
 8048d77:	c7 45 f4 00 00 00 00 	movl   $0x0,-0xc(%ebp)
 8048d7e:	eb 3e                	jmp    8048dbe <execve+0xa4>
 8048d80:	8b 45 d8             	mov    -0x28(%ebp),%eax
 8048d83:	8b 55 f4             	mov    -0xc(%ebp),%edx
 8048d86:	c1 e2 03             	shl    $0x3,%edx
 8048d89:	8d 34 10             	lea    (%eax,%edx,1),%esi
 8048d8c:	8b 45 f4             	mov    -0xc(%ebp),%eax
 8048d8f:	c1 e0 02             	shl    $0x2,%eax
 8048d92:	03 45 0c             	add    0xc(%ebp),%eax
 8048d95:	8b 00                	mov    (%eax),%eax
 8048d97:	89 04 24             	mov    %eax,(%esp)
 8048d9a:	e8 36 27 00 00       	call   804b4d5 <strlen>
 8048d9f:	89 46 04             	mov    %eax,0x4(%esi)
 8048da2:	8b 45 d8             	mov    -0x28(%ebp),%eax
 8048da5:	8b 55 f4             	mov    -0xc(%ebp),%edx
 8048da8:	c1 e2 03             	shl    $0x3,%edx
 8048dab:	01 c2                	add    %eax,%edx
 8048dad:	8b 45 f4             	mov    -0xc(%ebp),%eax
 8048db0:	c1 e0 02             	shl    $0x2,%eax
 8048db3:	03 45 0c             	add    0xc(%ebp),%eax
 8048db6:	8b 00                	mov    (%eax),%eax
 8048db8:	89 02                	mov    %eax,(%edx)
 8048dba:	83 45 f4 01          	addl   $0x1,-0xc(%ebp)
 8048dbe:	8b 45 f4             	mov    -0xc(%ebp),%eax
 8048dc1:	c1 e0 02             	shl    $0x2,%eax
 8048dc4:	03 45 0c             	add    0xc(%ebp),%eax
 8048dc7:	8b 00                	mov    (%eax),%eax
 8048dc9:	85 c0                	test   %eax,%eax
 8048dcb:	75 b3                	jne    8048d80 <execve+0x66>
 8048dcd:	8b 45 d8             	mov    -0x28(%ebp),%eax
 8048dd0:	8b 55 f4             	mov    -0xc(%ebp),%edx
 8048dd3:	c1 e2 03             	shl    $0x3,%edx
 8048dd6:	01 d0                	add    %edx,%eax
 8048dd8:	c7 40 04 00 00 00 00 	movl   $0x0,0x4(%eax)
 8048ddf:	8b 45 d8             	mov    -0x28(%ebp),%eax
 8048de2:	8b 55 f4             	mov    -0xc(%ebp),%edx
 8048de5:	c1 e2 03             	shl    $0x3,%edx
 8048de8:	01 d0                	add    %edx,%eax
 8048dea:	c7 00 00 00 00 00    	movl   $0x0,(%eax)
 8048df0:	c7 45 f4 00 00 00 00 	movl   $0x0,-0xc(%ebp)
 8048df7:	eb 04                	jmp    8048dfd <execve+0xe3>
 8048df9:	83 45 f4 01          	addl   $0x1,-0xc(%ebp)
 8048dfd:	8b 45 f4             	mov    -0xc(%ebp),%eax
 8048e00:	c1 e0 02             	shl    $0x2,%eax
 8048e03:	03 45 10             	add    0x10(%ebp),%eax
 8048e06:	8b 00                	mov    (%eax),%eax
 8048e08:	85 c0                	test   %eax,%eax
 8048e0a:	75 ed                	jne    8048df9 <execve+0xdf>
 8048e0c:	8b 45 f4             	mov    -0xc(%ebp),%eax
 8048e0f:	89 45 e4             	mov    %eax,-0x1c(%ebp)
 8048e12:	8b 45 e4             	mov    -0x1c(%ebp),%eax
 8048e15:	83 c0 01             	add    $0x1,%eax
 8048e18:	c1 e0 03             	shl    $0x3,%eax
 8048e1b:	89 04 24             	mov    %eax,(%esp)
 8048e1e:	e8 c5 21 00 00       	call   804afe8 <malloc>
 8048e23:	89 45 e0             	mov    %eax,-0x20(%ebp)
 8048e26:	c7 45 f4 00 00 00 00 	movl   $0x0,-0xc(%ebp)
 8048e2d:	eb 3e                	jmp    8048e6d <execve+0x153>
 8048e2f:	8b 45 e0             	mov    -0x20(%ebp),%eax
 8048e32:	8b 55 f4             	mov    -0xc(%ebp),%edx
 8048e35:	c1 e2 03             	shl    $0x3,%edx
 8048e38:	8d 34 10             	lea    (%eax,%edx,1),%esi
 8048e3b:	8b 45 f4             	mov    -0xc(%ebp),%eax
 8048e3e:	c1 e0 02             	shl    $0x2,%eax
 8048e41:	03 45 10             	add    0x10(%ebp),%eax
 8048e44:	8b 00                	mov    (%eax),%eax
 8048e46:	89 04 24             	mov    %eax,(%esp)
 8048e49:	e8 87 26 00 00       	call   804b4d5 <strlen>
 8048e4e:	89 46 04             	mov    %eax,0x4(%esi)
 8048e51:	8b 45 e0             	mov    -0x20(%ebp),%eax
 8048e54:	8b 55 f4             	mov    -0xc(%ebp),%edx
 8048e57:	c1 e2 03             	shl    $0x3,%edx
 8048e5a:	01 c2                	add    %eax,%edx
 8048e5c:	8b 45 f4             	mov    -0xc(%ebp),%eax
 8048e5f:	c1 e0 02             	shl    $0x2,%eax
 8048e62:	03 45 10             	add    0x10(%ebp),%eax
 8048e65:	8b 00                	mov    (%eax),%eax
 8048e67:	89 02                	mov    %eax,(%edx)
 8048e69:	83 45 f4 01          	addl   $0x1,-0xc(%ebp)
 8048e6d:	8b 45 f4             	mov    -0xc(%ebp),%eax
 8048e70:	c1 e0 02             	shl    $0x2,%eax
 8048e73:	03 45 10             	add    0x10(%ebp),%eax
 8048e76:	8b 00                	mov    (%eax),%eax
 8048e78:	85 c0                	test   %eax,%eax
 8048e7a:	75 b3                	jne    8048e2f <execve+0x115>
 8048e7c:	8b 45 e0             	mov    -0x20(%ebp),%eax
 8048e7f:	8b 55 f4             	mov    -0xc(%ebp),%edx
 8048e82:	c1 e2 03             	shl    $0x3,%edx
 8048e85:	01 d0                	add    %edx,%eax
 8048e87:	c7 40 04 00 00 00 00 	movl   $0x0,0x4(%eax)
 8048e8e:	8b 45 e0             	mov    -0x20(%ebp),%eax
 8048e91:	8b 55 f4             	mov    -0xc(%ebp),%edx
 8048e94:	c1 e2 03             	shl    $0x3,%edx
 8048e97:	01 d0                	add    %edx,%eax
 8048e99:	c7 00 00 00 00 00    	movl   $0x0,(%eax)
 8048e9f:	8d 45 d0             	lea    -0x30(%ebp),%eax
 8048ea2:	c7 45 f0 0a 00 00 00 	movl   $0xa,-0x10(%ebp)
 8048ea9:	89 45 ec             	mov    %eax,-0x14(%ebp)
 8048eac:	8b 45 f0             	mov    -0x10(%ebp),%eax
 8048eaf:	89 45 c4             	mov    %eax,-0x3c(%ebp)
 8048eb2:	8b 55 ec             	mov    -0x14(%ebp),%edx
 8048eb5:	8b 45 c4             	mov    -0x3c(%ebp),%eax
 8048eb8:	cd 2e                	int    $0x2e
 8048eba:	89 c6                	mov    %eax,%esi
 8048ebc:	89 75 e8             	mov    %esi,-0x18(%ebp)
 8048ebf:	c7 45 c4 27 00 00 00 	movl   $0x27,-0x3c(%ebp)
 8048ec6:	8b 45 c4             	mov    -0x3c(%ebp),%eax
 8048ec9:	cd 2e                	int    $0x2e
 8048ecb:	89 c2                	mov    %eax,%edx
 8048ecd:	8b 83 fc ff ff ff    	mov    -0x4(%ebx),%eax
 8048ed3:	89 10                	mov    %edx,(%eax)
 8048ed5:	8b 45 e8             	mov    -0x18(%ebp),%eax
 8048ed8:	83 c4 50             	add    $0x50,%esp
 8048edb:	5b                   	pop    %ebx
 8048edc:	5e                   	pop    %esi
 8048edd:	5d                   	pop    %ebp
 8048ede:	c3                   	ret    

08048edf <thr_set_errno>:
 8048edf:	55                   	push   %ebp
 8048ee0:	89 e5                	mov    %esp,%ebp
 8048ee2:	56                   	push   %esi
 8048ee3:	83 ec 14             	sub    $0x14,%esp
 8048ee6:	e8 1c 02 00 00       	call   8049107 <__i686.get_pc_thunk.cx>
 8048eeb:	81 c1 5d 57 00 00    	add    $0x575d,%ecx
 8048ef1:	8b 45 08             	mov    0x8(%ebp),%eax
 8048ef4:	c7 45 f8 2a 00 00 00 	movl   $0x2a,-0x8(%ebp)
 8048efb:	89 45 f4             	mov    %eax,-0xc(%ebp)
 8048efe:	8b 45 f8             	mov    -0x8(%ebp),%eax
 8048f01:	89 45 e8             	mov    %eax,-0x18(%ebp)
 8048f04:	8b 55 f4             	mov    -0xc(%ebp),%edx
 8048f07:	8b 45 e8             	mov    -0x18(%ebp),%eax
 8048f0a:	cd 2e                	int    $0x2e
 8048f0c:	89 c6                	mov    %eax,%esi
 8048f0e:	89 75 f0             	mov    %esi,-0x10(%ebp)
 8048f11:	c7 45 e8 27 00 00 00 	movl   $0x27,-0x18(%ebp)
 8048f18:	8b 45 e8             	mov    -0x18(%ebp),%eax
 8048f1b:	cd 2e                	int    $0x2e
 8048f1d:	89 c2                	mov    %eax,%edx
 8048f1f:	8b 81 fc ff ff ff    	mov    -0x4(%ecx),%eax
 8048f25:	89 10                	mov    %edx,(%eax)
 8048f27:	83 c4 14             	add    $0x14,%esp
 8048f2a:	5e                   	pop    %esi
 8048f2b:	5d                   	pop    %ebp
 8048f2c:	c3                   	ret    

08048f2d <thr_errno>:
 8048f2d:	55                   	push   %ebp
 8048f2e:	89 e5                	mov    %esp,%ebp
 8048f30:	56                   	push   %esi
 8048f31:	83 ec 14             	sub    $0x14,%esp
 8048f34:	e8 ce 01 00 00       	call   8049107 <__i686.get_pc_thunk.cx>
 8048f39:	81 c1 0f 57 00 00    	add    $0x570f,%ecx
 8048f3f:	c7 45 f8 27 00 00 00 	movl   $0x27,-0x8(%ebp)
 8048f46:	c7 45 f4 00 00 00 00 	movl   $0x0,-0xc(%ebp)
 8048f4d:	8b 45 f8             	mov    -0x8(%ebp),%eax
 8048f50:	89 45 e8             	mov    %eax,-0x18(%ebp)
 8048f53:	8b 55 f4             	mov    -0xc(%ebp),%edx
 8048f56:	8b 45 e8             	mov    -0x18(%ebp),%eax
 8048f59:	cd 2e                	int    $0x2e
 8048f5b:	89 c6                	mov    %eax,%esi
 8048f5d:	89 75 f0             	mov    %esi,-0x10(%ebp)
 8048f60:	c7 45 e8 27 00 00 00 	movl   $0x27,-0x18(%ebp)
 8048f67:	8b 45 e8             	mov    -0x18(%ebp),%eax
 8048f6a:	cd 2e                	int    $0x2e
 8048f6c:	89 c2                	mov    %eax,%edx
 8048f6e:	8b 81 fc ff ff ff    	mov    -0x4(%ecx),%eax
 8048f74:	89 10                	mov    %edx,(%eax)
 8048f76:	8b 45 f0             	mov    -0x10(%ebp),%eax
 8048f79:	83 c4 14             	add    $0x14,%esp
 8048f7c:	5e                   	pop    %esi
 8048f7d:	5d                   	pop    %ebp
 8048f7e:	c3                   	ret    

08048f7f <getdents>:
 8048f7f:	55                   	push   %ebp
 8048f80:	89 e5                	mov    %esp,%ebp
 8048f82:	56                   	push   %esi
 8048f83:	83 ec 24             	sub    $0x24,%esp
 8048f86:	e8 7c 01 00 00       	call   8049107 <__i686.get_pc_thunk.cx>
 8048f8b:	81 c1 bd 56 00 00    	add    $0x56bd,%ecx
 8048f91:	8b 45 08             	mov    0x8(%ebp),%eax
 8048f94:	89 45 e4             	mov    %eax,-0x1c(%ebp)
 8048f97:	8b 45 0c             	mov    0xc(%ebp),%eax
 8048f9a:	89 45 e8             	mov    %eax,-0x18(%ebp)
 8048f9d:	8b 45 10             	mov    0x10(%ebp),%eax
 8048fa0:	89 45 ec             	mov    %eax,-0x14(%ebp)
 8048fa3:	8d 45 e4             	lea    -0x1c(%ebp),%eax
 8048fa6:	c7 45 f8 17 00 00 00 	movl   $0x17,-0x8(%ebp)
 8048fad:	89 45 f4             	mov    %eax,-0xc(%ebp)
 8048fb0:	8b 45 f8             	mov    -0x8(%ebp),%eax
 8048fb3:	89 45 d8             	mov    %eax,-0x28(%ebp)
 8048fb6:	8b 55 f4             	mov    -0xc(%ebp),%edx
 8048fb9:	8b 45 d8             	mov    -0x28(%ebp),%eax
 8048fbc:	cd 2e                	int    $0x2e
 8048fbe:	89 c6                	mov    %eax,%esi
 8048fc0:	89 75 f0             	mov    %esi,-0x10(%ebp)
 8048fc3:	c7 45 d8 27 00 00 00 	movl   $0x27,-0x28(%ebp)
 8048fca:	8b 45 d8             	mov    -0x28(%ebp),%eax
 8048fcd:	cd 2e                	int    $0x2e
 8048fcf:	89 c2                	mov    %eax,%edx
 8048fd1:	8b 81 fc ff ff ff    	mov    -0x4(%ecx),%eax
 8048fd7:	89 10                	mov    %edx,(%eax)
 8048fd9:	8b 45 f0             	mov    -0x10(%ebp),%eax
 8048fdc:	83 c4 24             	add    $0x24,%esp
 8048fdf:	5e                   	pop    %esi
 8048fe0:	5d                   	pop    %ebp
 8048fe1:	c3                   	ret    

08048fe2 <stat>:
 8048fe2:	55                   	push   %ebp
 8048fe3:	89 e5                	mov    %esp,%ebp
 8048fe5:	56                   	push   %esi
 8048fe6:	53                   	push   %ebx
 8048fe7:	83 ec 40             	sub    $0x40,%esp
 8048fea:	e8 1c 01 00 00       	call   804910b <__i686.get_pc_thunk.bx>
 8048fef:	81 c3 59 56 00 00    	add    $0x5659,%ebx
 8048ff5:	8b 45 08             	mov    0x8(%ebp),%eax
 8048ff8:	89 04 24             	mov    %eax,(%esp)
 8048ffb:	e8 d5 24 00 00       	call   804b4d5 <strlen>
 8049000:	89 45 e4             	mov    %eax,-0x1c(%ebp)
 8049003:	8b 45 08             	mov    0x8(%ebp),%eax
 8049006:	89 45 e0             	mov    %eax,-0x20(%ebp)
 8049009:	8b 45 0c             	mov    0xc(%ebp),%eax
 804900c:	89 45 e8             	mov    %eax,-0x18(%ebp)
 804900f:	8d 45 e0             	lea    -0x20(%ebp),%eax
 8049012:	c7 45 f4 2f 00 00 00 	movl   $0x2f,-0xc(%ebp)
 8049019:	89 45 f0             	mov    %eax,-0x10(%ebp)
 804901c:	8b 45 f4             	mov    -0xc(%ebp),%eax
 804901f:	89 45 d4             	mov    %eax,-0x2c(%ebp)
 8049022:	8b 55 f0             	mov    -0x10(%ebp),%edx
 8049025:	8b 45 d4             	mov    -0x2c(%ebp),%eax
 8049028:	cd 2e                	int    $0x2e
 804902a:	89 c6                	mov    %eax,%esi
 804902c:	89 75 ec             	mov    %esi,-0x14(%ebp)
 804902f:	c7 45 d4 27 00 00 00 	movl   $0x27,-0x2c(%ebp)
 8049036:	8b 45 d4             	mov    -0x2c(%ebp),%eax
 8049039:	cd 2e                	int    $0x2e
 804903b:	89 c2                	mov    %eax,%edx
 804903d:	8b 83 fc ff ff ff    	mov    -0x4(%ebx),%eax
 8049043:	89 10                	mov    %edx,(%eax)
 8049045:	8b 45 ec             	mov    -0x14(%ebp),%eax
 8049048:	83 c4 40             	add    $0x40,%esp
 804904b:	5b                   	pop    %ebx
 804904c:	5e                   	pop    %esi
 804904d:	5d                   	pop    %ebp
 804904e:	c3                   	ret    

0804904f <uname>:
 804904f:	55                   	push   %ebp
 8049050:	89 e5                	mov    %esp,%ebp
 8049052:	56                   	push   %esi
 8049053:	83 ec 14             	sub    $0x14,%esp
 8049056:	e8 ac 00 00 00       	call   8049107 <__i686.get_pc_thunk.cx>
 804905b:	81 c1 ed 55 00 00    	add    $0x55ed,%ecx
 8049061:	8b 45 08             	mov    0x8(%ebp),%eax
 8049064:	c7 45 f8 1c 00 00 00 	movl   $0x1c,-0x8(%ebp)
 804906b:	89 45 f4             	mov    %eax,-0xc(%ebp)
 804906e:	8b 45 f8             	mov    -0x8(%ebp),%eax
 8049071:	89 45 e8             	mov    %eax,-0x18(%ebp)
 8049074:	8b 55 f4             	mov    -0xc(%ebp),%edx
 8049077:	8b 45 e8             	mov    -0x18(%ebp),%eax
 804907a:	cd 2e                	int    $0x2e
 804907c:	89 c6                	mov    %eax,%esi
 804907e:	89 75 f0             	mov    %esi,-0x10(%ebp)
 8049081:	c7 45 e8 27 00 00 00 	movl   $0x27,-0x18(%ebp)
 8049088:	8b 45 e8             	mov    -0x18(%ebp),%eax
 804908b:	cd 2e                	int    $0x2e
 804908d:	89 c2                	mov    %eax,%edx
 804908f:	8b 81 fc ff ff ff    	mov    -0x4(%ecx),%eax
 8049095:	89 10                	mov    %edx,(%eax)
 8049097:	8b 45 f0             	mov    -0x10(%ebp),%eax
 804909a:	83 c4 14             	add    $0x14,%esp
 804909d:	5e                   	pop    %esi
 804909e:	5d                   	pop    %ebp
 804909f:	c3                   	ret    

080490a0 <debug>:
 80490a0:	55                   	push   %ebp
 80490a1:	89 e5                	mov    %esp,%ebp
 80490a3:	56                   	push   %esi
 80490a4:	53                   	push   %ebx
 80490a5:	83 ec 40             	sub    $0x40,%esp
 80490a8:	e8 5e 00 00 00       	call   804910b <__i686.get_pc_thunk.bx>
 80490ad:	81 c3 9b 55 00 00    	add    $0x559b,%ebx
 80490b3:	8b 45 08             	mov    0x8(%ebp),%eax
 80490b6:	89 04 24             	mov    %eax,(%esp)
 80490b9:	e8 17 24 00 00       	call   804b4d5 <strlen>
 80490be:	89 45 e8             	mov    %eax,-0x18(%ebp)
 80490c1:	8b 45 08             	mov    0x8(%ebp),%eax
 80490c4:	89 45 e4             	mov    %eax,-0x1c(%ebp)
 80490c7:	8d 45 e4             	lea    -0x1c(%ebp),%eax
 80490ca:	c7 45 f4 29 23 00 00 	movl   $0x2329,-0xc(%ebp)
 80490d1:	89 45 f0             	mov    %eax,-0x10(%ebp)
 80490d4:	8b 45 f4             	mov    -0xc(%ebp),%eax
 80490d7:	89 45 d4             	mov    %eax,-0x2c(%ebp)
 80490da:	8b 55 f0             	mov    -0x10(%ebp),%edx
 80490dd:	8b 45 d4             	mov    -0x2c(%ebp),%eax
 80490e0:	cd 2e                	int    $0x2e
 80490e2:	89 c6                	mov    %eax,%esi
 80490e4:	89 75 ec             	mov    %esi,-0x14(%ebp)
 80490e7:	c7 45 d4 27 00 00 00 	movl   $0x27,-0x2c(%ebp)
 80490ee:	8b 45 d4             	mov    -0x2c(%ebp),%eax
 80490f1:	cd 2e                	int    $0x2e
 80490f3:	89 c2                	mov    %eax,%edx
 80490f5:	8b 83 fc ff ff ff    	mov    -0x4(%ebx),%eax
 80490fb:	89 10                	mov    %edx,(%eax)
 80490fd:	8b 45 ec             	mov    -0x14(%ebp),%eax
 8049100:	83 c4 40             	add    $0x40,%esp
 8049103:	5b                   	pop    %ebx
 8049104:	5e                   	pop    %esi
 8049105:	5d                   	pop    %ebp
 8049106:	c3                   	ret    

08049107 <__i686.get_pc_thunk.cx>:
 8049107:	8b 0c 24             	mov    (%esp),%ecx
 804910a:	c3                   	ret    

0804910b <__i686.get_pc_thunk.bx>:
 804910b:	8b 1c 24             	mov    (%esp),%ebx
 804910e:	c3                   	ret    
 804910f:	90                   	nop

08049110 <wrterror>:
 8049110:	55                   	push   %ebp
 8049111:	89 e5                	mov    %esp,%ebp
 8049113:	53                   	push   %ebx
 8049114:	83 ec 24             	sub    $0x24,%esp
 8049117:	e8 ef ff ff ff       	call   804910b <__i686.get_pc_thunk.bx>
 804911c:	81 c3 2c 55 00 00    	add    $0x552c,%ebx
 8049122:	8d 83 a1 d8 ff ff    	lea    -0x275f(%ebx),%eax
 8049128:	89 45 f4             	mov    %eax,-0xc(%ebp)
 804912b:	8b 83 10 00 00 00    	mov    0x10(%ebx),%eax
 8049131:	89 04 24             	mov    %eax,(%esp)
 8049134:	e8 9c 23 00 00       	call   804b4d5 <strlen>
 8049139:	8b 93 10 00 00 00    	mov    0x10(%ebx),%edx
 804913f:	89 44 24 08          	mov    %eax,0x8(%esp)
 8049143:	89 54 24 04          	mov    %edx,0x4(%esp)
 8049147:	c7 04 24 02 00 00 00 	movl   $0x2,(%esp)
 804914e:	e8 7b f7 ff ff       	call   80488ce <write>
 8049153:	8b 83 14 01 00 00    	mov    0x114(%ebx),%eax
 8049159:	89 04 24             	mov    %eax,(%esp)
 804915c:	e8 74 23 00 00       	call   804b4d5 <strlen>
 8049161:	8b 93 14 01 00 00    	mov    0x114(%ebx),%edx
 8049167:	89 44 24 08          	mov    %eax,0x8(%esp)
 804916b:	89 54 24 04          	mov    %edx,0x4(%esp)
 804916f:	c7 04 24 02 00 00 00 	movl   $0x2,(%esp)
 8049176:	e8 53 f7 ff ff       	call   80488ce <write>
 804917b:	8b 45 f4             	mov    -0xc(%ebp),%eax
 804917e:	89 04 24             	mov    %eax,(%esp)
 8049181:	e8 4f 23 00 00       	call   804b4d5 <strlen>
 8049186:	89 44 24 08          	mov    %eax,0x8(%esp)
 804918a:	8b 45 f4             	mov    -0xc(%ebp),%eax
 804918d:	89 44 24 04          	mov    %eax,0x4(%esp)
 8049191:	c7 04 24 02 00 00 00 	movl   $0x2,(%esp)
 8049198:	e8 31 f7 ff ff       	call   80488ce <write>
 804919d:	8b 45 08             	mov    0x8(%ebp),%eax
 80491a0:	89 04 24             	mov    %eax,(%esp)
 80491a3:	e8 2d 23 00 00       	call   804b4d5 <strlen>
 80491a8:	89 44 24 08          	mov    %eax,0x8(%esp)
 80491ac:	8b 45 08             	mov    0x8(%ebp),%eax
 80491af:	89 44 24 04          	mov    %eax,0x4(%esp)
 80491b3:	c7 04 24 02 00 00 00 	movl   $0x2,(%esp)
 80491ba:	e8 0f f7 ff ff       	call   80488ce <write>
 80491bf:	c7 83 f0 00 00 00 01 	movl   $0x1,0xf0(%ebx)
 80491c6:	00 00 00 
 80491c9:	c7 04 24 01 00 00 00 	movl   $0x1,(%esp)
 80491d0:	e8 53 f2 ff ff       	call   8048428 <exit>
 80491d5:	83 c4 24             	add    $0x24,%esp
 80491d8:	5b                   	pop    %ebx
 80491d9:	5d                   	pop    %ebp
 80491da:	c3                   	ret    

080491db <wrtwarning>:
 80491db:	55                   	push   %ebp
 80491dc:	89 e5                	mov    %esp,%ebp
 80491de:	53                   	push   %ebx
 80491df:	83 ec 24             	sub    $0x24,%esp
 80491e2:	e8 24 ff ff ff       	call   804910b <__i686.get_pc_thunk.bx>
 80491e7:	81 c3 61 54 00 00    	add    $0x5461,%ebx
 80491ed:	8d 83 aa d8 ff ff    	lea    -0x2756(%ebx),%eax
 80491f3:	89 45 f4             	mov    %eax,-0xc(%ebp)
 80491f6:	8b 83 ec 00 00 00    	mov    0xec(%ebx),%eax
 80491fc:	85 c0                	test   %eax,%eax
 80491fe:	74 0b                	je     804920b <wrtwarning+0x30>
 8049200:	8b 45 08             	mov    0x8(%ebp),%eax
 8049203:	89 04 24             	mov    %eax,(%esp)
 8049206:	e8 05 ff ff ff       	call   8049110 <wrterror>
 804920b:	8b 83 10 00 00 00    	mov    0x10(%ebx),%eax
 8049211:	89 04 24             	mov    %eax,(%esp)
 8049214:	e8 bc 22 00 00       	call   804b4d5 <strlen>
 8049219:	8b 93 10 00 00 00    	mov    0x10(%ebx),%edx
 804921f:	89 44 24 08          	mov    %eax,0x8(%esp)
 8049223:	89 54 24 04          	mov    %edx,0x4(%esp)
 8049227:	c7 04 24 02 00 00 00 	movl   $0x2,(%esp)
 804922e:	e8 9b f6 ff ff       	call   80488ce <write>
 8049233:	8b 83 14 01 00 00    	mov    0x114(%ebx),%eax
 8049239:	89 04 24             	mov    %eax,(%esp)
 804923c:	e8 94 22 00 00       	call   804b4d5 <strlen>
 8049241:	8b 93 14 01 00 00    	mov    0x114(%ebx),%edx
 8049247:	89 44 24 08          	mov    %eax,0x8(%esp)
 804924b:	89 54 24 04          	mov    %edx,0x4(%esp)
 804924f:	c7 04 24 02 00 00 00 	movl   $0x2,(%esp)
 8049256:	e8 73 f6 ff ff       	call   80488ce <write>
 804925b:	8b 45 f4             	mov    -0xc(%ebp),%eax
 804925e:	89 04 24             	mov    %eax,(%esp)
 8049261:	e8 6f 22 00 00       	call   804b4d5 <strlen>
 8049266:	89 44 24 08          	mov    %eax,0x8(%esp)
 804926a:	8b 45 f4             	mov    -0xc(%ebp),%eax
 804926d:	89 44 24 04          	mov    %eax,0x4(%esp)
 8049271:	c7 04 24 02 00 00 00 	movl   $0x2,(%esp)
 8049278:	e8 51 f6 ff ff       	call   80488ce <write>
 804927d:	8b 45 08             	mov    0x8(%ebp),%eax
 8049280:	89 04 24             	mov    %eax,(%esp)
 8049283:	e8 4d 22 00 00       	call   804b4d5 <strlen>
 8049288:	89 44 24 08          	mov    %eax,0x8(%esp)
 804928c:	8b 45 08             	mov    0x8(%ebp),%eax
 804928f:	89 44 24 04          	mov    %eax,0x4(%esp)
 8049293:	c7 04 24 02 00 00 00 	movl   $0x2,(%esp)
 804929a:	e8 2f f6 ff ff       	call   80488ce <write>
 804929f:	83 c4 24             	add    $0x24,%esp
 80492a2:	5b                   	pop    %ebx
 80492a3:	5d                   	pop    %ebp
 80492a4:	c3                   	ret    

080492a5 <map_pages>:
 80492a5:	55                   	push   %ebp
 80492a6:	89 e5                	mov    %esp,%ebp
 80492a8:	53                   	push   %ebx
 80492a9:	83 ec 24             	sub    $0x24,%esp
 80492ac:	e8 5a fe ff ff       	call   804910b <__i686.get_pc_thunk.bx>
 80492b1:	81 c3 97 53 00 00    	add    $0x5397,%ebx
 80492b7:	c7 04 24 00 00 00 00 	movl   $0x0,(%esp)
 80492be:	e8 3d ef ff ff       	call   8048200 <sbrk>
 80492c3:	05 ff 0f 00 00       	add    $0xfff,%eax
 80492c8:	25 00 f0 ff ff       	and    $0xfffff000,%eax
 80492cd:	89 45 f4             	mov    %eax,-0xc(%ebp)
 80492d0:	8b 45 08             	mov    0x8(%ebp),%eax
 80492d3:	c1 e0 0c             	shl    $0xc,%eax
 80492d6:	03 45 f4             	add    -0xc(%ebp),%eax
 80492d9:	89 45 f0             	mov    %eax,-0x10(%ebp)
 80492dc:	8b 45 f0             	mov    -0x10(%ebp),%eax
 80492df:	89 04 24             	mov    %eax,(%esp)
 80492e2:	e8 e9 ef ff ff       	call   80482d0 <brk>
 80492e7:	85 c0                	test   %eax,%eax
 80492e9:	74 07                	je     80492f2 <map_pages+0x4d>
 80492eb:	b8 00 00 00 00       	mov    $0x0,%eax
 80492f0:	eb 55                	jmp    8049347 <map_pages+0xa2>
 80492f2:	8b 45 f0             	mov    -0x10(%ebp),%eax
 80492f5:	89 c2                	mov    %eax,%edx
 80492f7:	c1 ea 0c             	shr    $0xc,%edx
 80492fa:	8b 83 c8 00 00 00    	mov    0xc8(%ebx),%eax
 8049300:	89 d1                	mov    %edx,%ecx
 8049302:	29 c1                	sub    %eax,%ecx
 8049304:	89 c8                	mov    %ecx,%eax
 8049306:	83 e8 01             	sub    $0x1,%eax
 8049309:	89 83 cc 00 00 00    	mov    %eax,0xcc(%ebx)
 804930f:	8b 45 f0             	mov    -0x10(%ebp),%eax
 8049312:	89 83 0c 01 00 00    	mov    %eax,0x10c(%ebx)
 8049318:	8b 83 cc 00 00 00    	mov    0xcc(%ebx),%eax
 804931e:	8d 50 01             	lea    0x1(%eax),%edx
 8049321:	8b 83 d4 00 00 00    	mov    0xd4(%ebx),%eax
 8049327:	39 c2                	cmp    %eax,%edx
 8049329:	72 19                	jb     8049344 <map_pages+0x9f>
 804932b:	8b 83 cc 00 00 00    	mov    0xcc(%ebx),%eax
 8049331:	89 04 24             	mov    %eax,(%esp)
 8049334:	e8 14 00 00 00       	call   804934d <extend_pgdir>
 8049339:	85 c0                	test   %eax,%eax
 804933b:	75 07                	jne    8049344 <map_pages+0x9f>
 804933d:	b8 00 00 00 00       	mov    $0x0,%eax
 8049342:	eb 03                	jmp    8049347 <map_pages+0xa2>
 8049344:	8b 45 f4             	mov    -0xc(%ebp),%eax
 8049347:	83 c4 24             	add    $0x24,%esp
 804934a:	5b                   	pop    %ebx
 804934b:	5d                   	pop    %ebp
 804934c:	c3                   	ret    

0804934d <extend_pgdir>:
 804934d:	55                   	push   %ebp
 804934e:	89 e5                	mov    %esp,%ebp
 8049350:	53                   	push   %ebx
 8049351:	83 ec 34             	sub    $0x34,%esp
 8049354:	e8 b2 fd ff ff       	call   804910b <__i686.get_pc_thunk.bx>
 8049359:	81 c3 ef 52 00 00    	add    $0x52ef,%ebx
 804935f:	8b 45 08             	mov    0x8(%ebp),%eax
 8049362:	c1 e0 02             	shl    $0x2,%eax
 8049365:	89 45 f4             	mov    %eax,-0xc(%ebp)
 8049368:	8b 45 f4             	mov    -0xc(%ebp),%eax
 804936b:	c1 e8 0c             	shr    $0xc,%eax
 804936e:	89 45 f4             	mov    %eax,-0xc(%ebp)
 8049371:	83 45 f4 02          	addl   $0x2,-0xc(%ebp)
 8049375:	8b 83 d4 00 00 00    	mov    0xd4(%ebx),%eax
 804937b:	c1 e0 02             	shl    $0x2,%eax
 804937e:	89 45 f0             	mov    %eax,-0x10(%ebp)
 8049381:	8b 83 bc 00 00 00    	mov    0xbc(%ebx),%eax
 8049387:	8b 55 f4             	mov    -0xc(%ebp),%edx
 804938a:	c1 e2 0c             	shl    $0xc,%edx
 804938d:	c7 44 24 14 00 00 00 	movl   $0x0,0x14(%esp)
 8049394:	00 
 8049395:	89 44 24 10          	mov    %eax,0x10(%esp)
 8049399:	c7 44 24 0c 02 00 00 	movl   $0x2,0xc(%esp)
 80493a0:	00 
 80493a1:	c7 44 24 08 03 00 00 	movl   $0x3,0x8(%esp)
 80493a8:	00 
 80493a9:	89 54 24 04          	mov    %edx,0x4(%esp)
 80493ad:	c7 04 24 00 00 00 00 	movl   $0x0,(%esp)
 80493b4:	e8 bb f2 ff ff       	call   8048674 <mmap>
 80493b9:	89 45 ec             	mov    %eax,-0x14(%ebp)
 80493bc:	83 7d ec ff          	cmpl   $0xffffffff,-0x14(%ebp)
 80493c0:	75 07                	jne    80493c9 <extend_pgdir+0x7c>
 80493c2:	b8 00 00 00 00       	mov    $0x0,%eax
 80493c7:	eb 5e                	jmp    8049427 <extend_pgdir+0xda>
 80493c9:	8b 83 d4 00 00 00    	mov    0xd4(%ebx),%eax
 80493cf:	8d 14 85 00 00 00 00 	lea    0x0(,%eax,4),%edx
 80493d6:	8b 83 d0 00 00 00    	mov    0xd0(%ebx),%eax
 80493dc:	89 54 24 08          	mov    %edx,0x8(%esp)
 80493e0:	89 44 24 04          	mov    %eax,0x4(%esp)
 80493e4:	8b 45 ec             	mov    -0x14(%ebp),%eax
 80493e7:	89 04 24             	mov    %eax,(%esp)
 80493ea:	e8 eb 1e 00 00       	call   804b2da <memcpy>
 80493ef:	8b 45 f4             	mov    -0xc(%ebp),%eax
 80493f2:	c1 e0 0c             	shl    $0xc,%eax
 80493f5:	c1 e8 02             	shr    $0x2,%eax
 80493f8:	89 83 d4 00 00 00    	mov    %eax,0xd4(%ebx)
 80493fe:	8b 83 d0 00 00 00    	mov    0xd0(%ebx),%eax
 8049404:	89 45 e8             	mov    %eax,-0x18(%ebp)
 8049407:	8b 45 ec             	mov    -0x14(%ebp),%eax
 804940a:	89 83 d0 00 00 00    	mov    %eax,0xd0(%ebx)
 8049410:	8b 45 f0             	mov    -0x10(%ebp),%eax
 8049413:	89 44 24 04          	mov    %eax,0x4(%esp)
 8049417:	8b 45 e8             	mov    -0x18(%ebp),%eax
 804941a:	89 04 24             	mov    %eax,(%esp)
 804941d:	e8 c7 f2 ff ff       	call   80486e9 <munmap>
 8049422:	b8 01 00 00 00       	mov    $0x1,%eax
 8049427:	83 c4 34             	add    $0x34,%esp
 804942a:	5b                   	pop    %ebx
 804942b:	5d                   	pop    %ebp
 804942c:	c3                   	ret    

0804942d <malloc_init>:
 804942d:	55                   	push   %ebp
 804942e:	89 e5                	mov    %esp,%ebp
 8049430:	53                   	push   %ebx
 8049431:	83 ec 34             	sub    $0x34,%esp
 8049434:	e8 d2 fc ff ff       	call   804910b <__i686.get_pc_thunk.bx>
 8049439:	81 c3 0f 52 00 00    	add    $0x520f,%ebx
 804943f:	c7 44 24 08 00 00 00 	movl   $0x0,0x8(%esp)
 8049446:	00 
 8049447:	c7 44 24 04 02 00 00 	movl   $0x2,0x4(%esp)
 804944e:	00 
 804944f:	8d 83 b5 d8 ff ff    	lea    -0x274b(%ebx),%eax
 8049455:	89 04 24             	mov    %eax,(%esp)
 8049458:	e8 38 f3 ff ff       	call   8048795 <open>
 804945d:	89 83 bc 00 00 00    	mov    %eax,0xbc(%ebx)
 8049463:	8b 83 bc 00 00 00    	mov    0xbc(%ebx),%eax
 8049469:	83 f8 ff             	cmp    $0xffffffff,%eax
 804946c:	75 0e                	jne    804947c <malloc_init+0x4f>
 804946e:	8d 83 bf d8 ff ff    	lea    -0x2741(%ebx),%eax
 8049474:	89 04 24             	mov    %eax,(%esp)
 8049477:	e8 94 fc ff ff       	call   8049110 <wrterror>
 804947c:	c7 45 f0 00 00 00 00 	movl   $0x0,-0x10(%ebp)
 8049483:	e9 7f 02 00 00       	jmp    8049707 <malloc_init+0x2da>
 8049488:	83 7d f0 00          	cmpl   $0x0,-0x10(%ebp)
 804948c:	75 0c                	jne    804949a <malloc_init+0x6d>
 804948e:	c7 45 f4 00 00 00 00 	movl   $0x0,-0xc(%ebp)
 8049495:	e9 55 02 00 00       	jmp    80496ef <malloc_init+0x2c2>
 804949a:	83 7d f0 01          	cmpl   $0x1,-0x10(%ebp)
 804949e:	75 0c                	jne    80494ac <malloc_init+0x7f>
 80494a0:	c7 45 f4 00 00 00 00 	movl   $0x0,-0xc(%ebp)
 80494a7:	e9 43 02 00 00       	jmp    80496ef <malloc_init+0x2c2>
 80494ac:	8b 83 f8 ff ff ff    	mov    -0x8(%ebx),%eax
 80494b2:	8b 00                	mov    (%eax),%eax
 80494b4:	89 45 f4             	mov    %eax,-0xc(%ebp)
 80494b7:	e9 33 02 00 00       	jmp    80496ef <malloc_init+0x2c2>
 80494bc:	8b 45 f4             	mov    -0xc(%ebp),%eax
 80494bf:	0f b6 00             	movzbl (%eax),%eax
 80494c2:	0f be c0             	movsbl %al,%eax
 80494c5:	83 e8 3c             	sub    $0x3c,%eax
 80494c8:	83 f8 3e             	cmp    $0x3e,%eax
 80494cb:	0f 87 ef 01 00 00    	ja     80496c0 <malloc_init+0x293>
 80494d1:	c1 e0 02             	shl    $0x2,%eax
 80494d4:	8b 84 18 9c ae ff ff 	mov    -0x5164(%eax,%ebx,1),%eax
 80494db:	89 da                	mov    %ebx,%edx
 80494dd:	29 c2                	sub    %eax,%edx
 80494df:	89 d0                	mov    %edx,%eax
 80494e1:	ff e0                	jmp    *%eax
 80494e3:	90                   	nop
 80494e4:	55                   	push   %ebp
 80494e5:	50                   	push   %eax
 80494e6:	00 00                	add    %al,(%eax)
 80494e8:	88 4f 00             	mov    %cl,0x0(%edi)
 80494eb:	00 68 50             	add    %ch,0x50(%eax)
 80494ee:	00 00                	add    %al,(%eax)
 80494f0:	88 4f 00             	mov    %cl,0x0(%edi)
 80494f3:	00 88 4f 00 00 33    	add    %cl,0x3300004f(%eax)
 80494f9:	50                   	push   %eax
 80494fa:	00 00                	add    %al,(%eax)
 80494fc:	88 4f 00             	mov    %cl,0x0(%edi)
 80494ff:	00 88 4f 00 00 88    	add    %cl,-0x77ffffb1(%eax)
 8049505:	4f                   	dec    %edi
 8049506:	00 00                	add    %al,(%eax)
 8049508:	88 4f 00             	mov    %cl,0x0(%edi)
 804950b:	00 88 4f 00 00 88    	add    %cl,-0x77ffffb1(%eax)
 8049511:	4f                   	dec    %edi
 8049512:	00 00                	add    %al,(%eax)
 8049514:	15 50 00 00 88       	adc    $0x88000050,%eax
 8049519:	4f                   	dec    %edi
 804951a:	00 00                	add    %al,(%eax)
 804951c:	dc 4f 00             	fmull  0x0(%edi)
 804951f:	00 88 4f 00 00 88    	add    %cl,-0x77ffffb1(%eax)
 8049525:	4f                   	dec    %edi
 8049526:	00 00                	add    %al,(%eax)
 8049528:	88 4f 00             	mov    %cl,0x0(%edi)
 804952b:	00 88 4f 00 00 88    	add    %cl,-0x77ffffb1(%eax)
 8049531:	4f                   	dec    %edi
 8049532:	00 00                	add    %al,(%eax)
 8049534:	88 4f 00             	mov    %cl,0x0(%edi)
 8049537:	00 88 4f 00 00 f7    	add    %cl,-0x8ffffb1(%eax)
 804953d:	4f                   	dec    %edi
 804953e:	00 00                	add    %al,(%eax)
 8049540:	88 4f 00             	mov    %cl,0x0(%edi)
 8049543:	00 88 4f 00 00 88    	add    %cl,-0x77ffffb1(%eax)
 8049549:	4f                   	dec    %edi
 804954a:	00 00                	add    %al,(%eax)
 804954c:	c4 4f 00             	les    0x0(%edi),%ecx
 804954f:	00 88 4f 00 00 ac    	add    %cl,-0x53ffffb1(%eax)
 8049555:	4f                   	dec    %edi
 8049556:	00 00                	add    %al,(%eax)
 8049558:	88 4f 00             	mov    %cl,0x0(%edi)
 804955b:	00 94 4f 00 00 88 4f 	add    %dl,0x4f880000(%edi,%ecx,2)
 8049562:	00 00                	add    %al,(%eax)
 8049564:	88 4f 00             	mov    %cl,0x0(%edi)
 8049567:	00 88 4f 00 00 88    	add    %cl,-0x77ffffb1(%eax)
 804956d:	4f                   	dec    %edi
 804956e:	00 00                	add    %al,(%eax)
 8049570:	88 4f 00             	mov    %cl,0x0(%edi)
 8049573:	00 88 4f 00 00 42    	add    %cl,0x4200004f(%eax)
 8049579:	50                   	push   %eax
 804957a:	00 00                	add    %al,(%eax)
 804957c:	88 4f 00             	mov    %cl,0x0(%edi)
 804957f:	00 88 4f 00 00 88    	add    %cl,-0x77ffffb1(%eax)
 8049585:	4f                   	dec    %edi
 8049586:	00 00                	add    %al,(%eax)
 8049588:	88 4f 00             	mov    %cl,0x0(%edi)
 804958b:	00 88 4f 00 00 88    	add    %cl,-0x77ffffb1(%eax)
 8049591:	4f                   	dec    %edi
 8049592:	00 00                	add    %al,(%eax)
 8049594:	24 50                	and    $0x50,%al
 8049596:	00 00                	add    %al,(%eax)
 8049598:	88 4f 00             	mov    %cl,0x0(%edi)
 804959b:	00 e8                	add    %ch,%al
 804959d:	4f                   	dec    %edi
 804959e:	00 00                	add    %al,(%eax)
 80495a0:	88 4f 00             	mov    %cl,0x0(%edi)
 80495a3:	00 88 4f 00 00 88    	add    %cl,-0x77ffffb1(%eax)
 80495a9:	4f                   	dec    %edi
 80495aa:	00 00                	add    %al,(%eax)
 80495ac:	88 4f 00             	mov    %cl,0x0(%edi)
 80495af:	00 88 4f 00 00 88    	add    %cl,-0x77ffffb1(%eax)
 80495b5:	4f                   	dec    %edi
 80495b6:	00 00                	add    %al,(%eax)
 80495b8:	88 4f 00             	mov    %cl,0x0(%edi)
 80495bb:	00 06                	add    %al,(%esi)
 80495bd:	50                   	push   %eax
 80495be:	00 00                	add    %al,(%eax)
 80495c0:	88 4f 00             	mov    %cl,0x0(%edi)
 80495c3:	00 88 4f 00 00 88    	add    %cl,-0x77ffffb1(%eax)
 80495c9:	4f                   	dec    %edi
 80495ca:	00 00                	add    %al,(%eax)
 80495cc:	d0 4f 00             	rorb   0x0(%edi)
 80495cf:	00 88 4f 00 00 b8    	add    %cl,-0x47ffffb1(%eax)
 80495d5:	4f                   	dec    %edi
 80495d6:	00 00                	add    %al,(%eax)
 80495d8:	88 4f 00             	mov    %cl,0x0(%edi)
 80495db:	00 a0 4f 00 00 8b    	add    %ah,-0x74ffffb1(%eax)
 80495e1:	83 0c 00 00          	orl    $0x0,(%eax,%eax,1)
 80495e5:	00 01                	add    %al,(%ecx)
 80495e7:	c0 89 83 0c 00 00 00 	rorb   $0x0,0xc83(%ecx)
 80495ee:	e9 f8 00 00 00       	jmp    80496eb <malloc_init+0x2be>
 80495f3:	8b 83 0c 00 00 00    	mov    0xc(%ebx),%eax
 80495f9:	d1 e8                	shr    %eax
 80495fb:	89 83 0c 00 00 00    	mov    %eax,0xc(%ebx)
 8049601:	e9 e5 00 00 00       	jmp    80496eb <malloc_init+0x2be>
 8049606:	c7 83 ec 00 00 00 00 	movl   $0x0,0xec(%ebx)
 804960d:	00 00 00 
 8049610:	e9 d6 00 00 00       	jmp    80496eb <malloc_init+0x2be>
 8049615:	c7 83 ec 00 00 00 01 	movl   $0x1,0xec(%ebx)
 804961c:	00 00 00 
 804961f:	e9 c7 00 00 00       	jmp    80496eb <malloc_init+0x2be>
 8049624:	c7 83 f8 00 00 00 00 	movl   $0x0,0xf8(%ebx)
 804962b:	00 00 00 
 804962e:	e9 b8 00 00 00       	jmp    80496eb <malloc_init+0x2be>
 8049633:	c7 83 f8 00 00 00 01 	movl   $0x1,0xf8(%ebx)
 804963a:	00 00 00 
 804963d:	e9 a9 00 00 00       	jmp    80496eb <malloc_init+0x2be>
 8049642:	c7 83 f4 00 00 00 00 	movl   $0x0,0xf4(%ebx)
 8049649:	00 00 00 
 804964c:	e9 9a 00 00 00       	jmp    80496eb <malloc_init+0x2be>
 8049651:	c7 83 f4 00 00 00 01 	movl   $0x1,0xf4(%ebx)
 8049658:	00 00 00 
 804965b:	e9 8b 00 00 00       	jmp    80496eb <malloc_init+0x2be>
 8049660:	c7 83 08 01 00 00 00 	movl   $0x0,0x108(%ebx)
 8049667:	00 00 00 
 804966a:	eb 7f                	jmp    80496eb <malloc_init+0x2be>
 804966c:	c7 83 08 01 00 00 01 	movl   $0x1,0x108(%ebx)
 8049673:	00 00 00 
 8049676:	eb 73                	jmp    80496eb <malloc_init+0x2be>
 8049678:	c7 83 00 01 00 00 00 	movl   $0x0,0x100(%ebx)
 804967f:	00 00 00 
 8049682:	eb 67                	jmp    80496eb <malloc_init+0x2be>
 8049684:	c7 83 00 01 00 00 01 	movl   $0x1,0x100(%ebx)
 804968b:	00 00 00 
 804968e:	eb 5b                	jmp    80496eb <malloc_init+0x2be>
 8049690:	c7 83 fc 00 00 00 00 	movl   $0x0,0xfc(%ebx)
 8049697:	00 00 00 
 804969a:	eb 4f                	jmp    80496eb <malloc_init+0x2be>
 804969c:	c7 83 fc 00 00 00 01 	movl   $0x1,0xfc(%ebx)
 80496a3:	00 00 00 
 80496a6:	eb 43                	jmp    80496eb <malloc_init+0x2be>
 80496a8:	c7 83 04 01 00 00 00 	movl   $0x0,0x104(%ebx)
 80496af:	00 00 00 
 80496b2:	eb 37                	jmp    80496eb <malloc_init+0x2be>
 80496b4:	c7 83 04 01 00 00 01 	movl   $0x1,0x104(%ebx)
 80496bb:	00 00 00 
 80496be:	eb 2b                	jmp    80496eb <malloc_init+0x2be>
 80496c0:	8b 83 ec 00 00 00    	mov    0xec(%ebx),%eax
 80496c6:	89 45 ec             	mov    %eax,-0x14(%ebp)
 80496c9:	c7 83 ec 00 00 00 00 	movl   $0x0,0xec(%ebx)
 80496d0:	00 00 00 
 80496d3:	8d 83 d4 d8 ff ff    	lea    -0x272c(%ebx),%eax
 80496d9:	89 04 24             	mov    %eax,(%esp)
 80496dc:	e8 fa fa ff ff       	call   80491db <wrtwarning>
 80496e1:	8b 45 ec             	mov    -0x14(%ebp),%eax
 80496e4:	89 83 ec 00 00 00    	mov    %eax,0xec(%ebx)
 80496ea:	90                   	nop
 80496eb:	83 45 f4 01          	addl   $0x1,-0xc(%ebp)
 80496ef:	83 7d f4 00          	cmpl   $0x0,-0xc(%ebp)
 80496f3:	74 0e                	je     8049703 <malloc_init+0x2d6>
 80496f5:	8b 45 f4             	mov    -0xc(%ebp),%eax
 80496f8:	0f b6 00             	movzbl (%eax),%eax
 80496fb:	84 c0                	test   %al,%al
 80496fd:	0f 85 b9 fd ff ff    	jne    80494bc <malloc_init+0x8f>
 8049703:	83 45 f0 01          	addl   $0x1,-0x10(%ebp)
 8049707:	83 7d f0 02          	cmpl   $0x2,-0x10(%ebp)
 804970b:	0f 8e 77 fd ff ff    	jle    8049488 <malloc_init+0x5b>
 8049711:	8b 83 04 01 00 00    	mov    0x104(%ebx),%eax
 8049717:	85 c0                	test   %eax,%eax
 8049719:	74 0a                	je     8049725 <malloc_init+0x2f8>
 804971b:	c7 83 08 01 00 00 01 	movl   $0x1,0x108(%ebx)
 8049722:	00 00 00 
 8049725:	8b 83 08 01 00 00    	mov    0x108(%ebx),%eax
 804972b:	85 c0                	test   %eax,%eax
 804972d:	74 0a                	je     8049739 <malloc_init+0x30c>
 804972f:	c7 83 f4 00 00 00 01 	movl   $0x1,0xf4(%ebx)
 8049736:	00 00 00 
 8049739:	8b 83 bc 00 00 00    	mov    0xbc(%ebx),%eax
 804973f:	c7 44 24 14 00 00 00 	movl   $0x0,0x14(%esp)
 8049746:	00 
 8049747:	89 44 24 10          	mov    %eax,0x10(%esp)
 804974b:	c7 44 24 0c 02 00 00 	movl   $0x2,0xc(%esp)
 8049752:	00 
 8049753:	c7 44 24 08 03 00 00 	movl   $0x3,0x8(%esp)
 804975a:	00 
 804975b:	c7 44 24 04 00 10 00 	movl   $0x1000,0x4(%esp)
 8049762:	00 
 8049763:	c7 04 24 00 00 00 00 	movl   $0x0,(%esp)
 804976a:	e8 05 ef ff ff       	call   8048674 <mmap>
 804976f:	89 83 d0 00 00 00    	mov    %eax,0xd0(%ebx)
 8049775:	8b 83 d0 00 00 00    	mov    0xd0(%ebx),%eax
 804977b:	83 f8 ff             	cmp    $0xffffffff,%eax
 804977e:	75 0e                	jne    804978e <malloc_init+0x361>
 8049780:	8d 83 f4 d8 ff ff    	lea    -0x270c(%ebx),%eax
 8049786:	89 04 24             	mov    %eax,(%esp)
 8049789:	e8 82 f9 ff ff       	call   8049110 <wrterror>
 804978e:	c7 04 24 00 00 00 00 	movl   $0x0,(%esp)
 8049795:	e8 66 ea ff ff       	call   8048200 <sbrk>
 804979a:	05 ff 0f 00 00       	add    $0xfff,%eax
 804979f:	c1 e8 0c             	shr    $0xc,%eax
 80497a2:	89 83 c8 00 00 00    	mov    %eax,0xc8(%ebx)
 80497a8:	8b 83 c8 00 00 00    	mov    0xc8(%ebx),%eax
 80497ae:	83 e8 0c             	sub    $0xc,%eax
 80497b1:	89 83 c8 00 00 00    	mov    %eax,0xc8(%ebx)
 80497b7:	c7 83 d4 00 00 00 00 	movl   $0x400,0xd4(%ebx)
 80497be:	04 00 00 
 80497c1:	8b 83 0c 00 00 00    	mov    0xc(%ebx),%eax
 80497c7:	85 c0                	test   %eax,%eax
 80497c9:	75 0f                	jne    80497da <malloc_init+0x3ad>
 80497cb:	8b 83 0c 00 00 00    	mov    0xc(%ebx),%eax
 80497d1:	83 c0 01             	add    $0x1,%eax
 80497d4:	89 83 0c 00 00 00    	mov    %eax,0xc(%ebx)
 80497da:	8b 83 0c 00 00 00    	mov    0xc(%ebx),%eax
 80497e0:	c1 e0 0c             	shl    $0xc,%eax
 80497e3:	89 83 0c 00 00 00    	mov    %eax,0xc(%ebx)
 80497e9:	c7 04 24 14 00 00 00 	movl   $0x14,(%esp)
 80497f0:	e8 b9 07 00 00       	call   8049fae <imalloc>
 80497f5:	89 83 10 01 00 00    	mov    %eax,0x110(%ebx)
 80497fb:	8b 83 c0 00 00 00    	mov    0xc0(%ebx),%eax
 8049801:	83 c0 01             	add    $0x1,%eax
 8049804:	89 83 c0 00 00 00    	mov    %eax,0xc0(%ebx)
 804980a:	83 c4 34             	add    $0x34,%esp
 804980d:	5b                   	pop    %ebx
 804980e:	5d                   	pop    %ebp
 804980f:	c3                   	ret    

08049810 <malloc_pages>:
 8049810:	55                   	push   %ebp
 8049811:	89 e5                	mov    %esp,%ebp
 8049813:	53                   	push   %ebx
 8049814:	83 ec 34             	sub    $0x34,%esp
 8049817:	e8 ef f8 ff ff       	call   804910b <__i686.get_pc_thunk.bx>
 804981c:	81 c3 2c 4e 00 00    	add    $0x4e2c,%ebx
 8049822:	c7 45 f0 00 00 00 00 	movl   $0x0,-0x10(%ebp)
 8049829:	8b 45 08             	mov    0x8(%ebp),%eax
 804982c:	05 ff 0f 00 00       	add    $0xfff,%eax
 8049831:	25 00 f0 ff ff       	and    $0xfffff000,%eax
 8049836:	89 45 08             	mov    %eax,0x8(%ebp)
 8049839:	c7 45 f4 00 00 00 00 	movl   $0x0,-0xc(%ebp)
 8049840:	8b 83 d8 00 00 00    	mov    0xd8(%ebx),%eax
 8049846:	89 45 e8             	mov    %eax,-0x18(%ebp)
 8049849:	e9 82 00 00 00       	jmp    80498d0 <malloc_pages+0xc0>
 804984e:	8b 45 e8             	mov    -0x18(%ebp),%eax
 8049851:	8b 40 10             	mov    0x10(%eax),%eax
 8049854:	3b 45 08             	cmp    0x8(%ebp),%eax
 8049857:	73 0a                	jae    8049863 <malloc_pages+0x53>
 8049859:	8b 45 e8             	mov    -0x18(%ebp),%eax
 804985c:	8b 00                	mov    (%eax),%eax
 804985e:	89 45 e8             	mov    %eax,-0x18(%ebp)
 8049861:	eb 6d                	jmp    80498d0 <malloc_pages+0xc0>
 8049863:	8b 45 e8             	mov    -0x18(%ebp),%eax
 8049866:	8b 40 10             	mov    0x10(%eax),%eax
 8049869:	3b 45 08             	cmp    0x8(%ebp),%eax
 804986c:	75 35                	jne    80498a3 <malloc_pages+0x93>
 804986e:	8b 45 e8             	mov    -0x18(%ebp),%eax
 8049871:	8b 40 08             	mov    0x8(%eax),%eax
 8049874:	89 45 f4             	mov    %eax,-0xc(%ebp)
 8049877:	8b 45 e8             	mov    -0x18(%ebp),%eax
 804987a:	8b 00                	mov    (%eax),%eax
 804987c:	85 c0                	test   %eax,%eax
 804987e:	74 0e                	je     804988e <malloc_pages+0x7e>
 8049880:	8b 45 e8             	mov    -0x18(%ebp),%eax
 8049883:	8b 00                	mov    (%eax),%eax
 8049885:	8b 55 e8             	mov    -0x18(%ebp),%edx
 8049888:	8b 52 04             	mov    0x4(%edx),%edx
 804988b:	89 50 04             	mov    %edx,0x4(%eax)
 804988e:	8b 45 e8             	mov    -0x18(%ebp),%eax
 8049891:	8b 40 04             	mov    0x4(%eax),%eax
 8049894:	8b 55 e8             	mov    -0x18(%ebp),%edx
 8049897:	8b 12                	mov    (%edx),%edx
 8049899:	89 10                	mov    %edx,(%eax)
 804989b:	8b 45 e8             	mov    -0x18(%ebp),%eax
 804989e:	89 45 f0             	mov    %eax,-0x10(%ebp)
 80498a1:	eb 37                	jmp    80498da <malloc_pages+0xca>
 80498a3:	8b 45 e8             	mov    -0x18(%ebp),%eax
 80498a6:	8b 40 08             	mov    0x8(%eax),%eax
 80498a9:	89 45 f4             	mov    %eax,-0xc(%ebp)
 80498ac:	8b 45 e8             	mov    -0x18(%ebp),%eax
 80498af:	8b 40 08             	mov    0x8(%eax),%eax
 80498b2:	89 c2                	mov    %eax,%edx
 80498b4:	03 55 08             	add    0x8(%ebp),%edx
 80498b7:	8b 45 e8             	mov    -0x18(%ebp),%eax
 80498ba:	89 50 08             	mov    %edx,0x8(%eax)
 80498bd:	8b 45 e8             	mov    -0x18(%ebp),%eax
 80498c0:	8b 40 10             	mov    0x10(%eax),%eax
 80498c3:	89 c2                	mov    %eax,%edx
 80498c5:	2b 55 08             	sub    0x8(%ebp),%edx
 80498c8:	8b 45 e8             	mov    -0x18(%ebp),%eax
 80498cb:	89 50 10             	mov    %edx,0x10(%eax)
 80498ce:	eb 0a                	jmp    80498da <malloc_pages+0xca>
 80498d0:	83 7d e8 00          	cmpl   $0x0,-0x18(%ebp)
 80498d4:	0f 85 74 ff ff ff    	jne    804984e <malloc_pages+0x3e>
 80498da:	c1 6d 08 0c          	shrl   $0xc,0x8(%ebp)
 80498de:	83 7d f4 00          	cmpl   $0x0,-0xc(%ebp)
 80498e2:	75 0e                	jne    80498f2 <malloc_pages+0xe2>
 80498e4:	8b 45 08             	mov    0x8(%ebp),%eax
 80498e7:	89 04 24             	mov    %eax,(%esp)
 80498ea:	e8 b6 f9 ff ff       	call   80492a5 <map_pages>
 80498ef:	89 45 f4             	mov    %eax,-0xc(%ebp)
 80498f2:	83 7d f4 00          	cmpl   $0x0,-0xc(%ebp)
 80498f6:	0f 84 80 00 00 00    	je     804997c <malloc_pages+0x16c>
 80498fc:	8b 45 f4             	mov    -0xc(%ebp),%eax
 80498ff:	89 c2                	mov    %eax,%edx
 8049901:	c1 ea 0c             	shr    $0xc,%edx
 8049904:	8b 83 c8 00 00 00    	mov    0xc8(%ebx),%eax
 804990a:	89 d1                	mov    %edx,%ecx
 804990c:	29 c1                	sub    %eax,%ecx
 804990e:	89 c8                	mov    %ecx,%eax
 8049910:	89 45 e4             	mov    %eax,-0x1c(%ebp)
 8049913:	8b 83 d0 00 00 00    	mov    0xd0(%ebx),%eax
 8049919:	8b 55 e4             	mov    -0x1c(%ebp),%edx
 804991c:	c1 e2 02             	shl    $0x2,%edx
 804991f:	01 d0                	add    %edx,%eax
 8049921:	c7 00 02 00 00 00    	movl   $0x2,(%eax)
 8049927:	c7 45 ec 01 00 00 00 	movl   $0x1,-0x14(%ebp)
 804992e:	eb 1d                	jmp    804994d <malloc_pages+0x13d>
 8049930:	8b 83 d0 00 00 00    	mov    0xd0(%ebx),%eax
 8049936:	8b 55 ec             	mov    -0x14(%ebp),%edx
 8049939:	8b 4d e4             	mov    -0x1c(%ebp),%ecx
 804993c:	01 ca                	add    %ecx,%edx
 804993e:	c1 e2 02             	shl    $0x2,%edx
 8049941:	01 d0                	add    %edx,%eax
 8049943:	c7 00 03 00 00 00    	movl   $0x3,(%eax)
 8049949:	83 45 ec 01          	addl   $0x1,-0x14(%ebp)
 804994d:	8b 45 ec             	mov    -0x14(%ebp),%eax
 8049950:	3b 45 08             	cmp    0x8(%ebp),%eax
 8049953:	72 db                	jb     8049930 <malloc_pages+0x120>
 8049955:	8b 83 08 01 00 00    	mov    0x108(%ebx),%eax
 804995b:	85 c0                	test   %eax,%eax
 804995d:	74 1d                	je     804997c <malloc_pages+0x16c>
 804995f:	8b 45 08             	mov    0x8(%ebp),%eax
 8049962:	c1 e0 0c             	shl    $0xc,%eax
 8049965:	89 44 24 08          	mov    %eax,0x8(%esp)
 8049969:	c7 44 24 04 d0 00 00 	movl   $0xd0,0x4(%esp)
 8049970:	00 
 8049971:	8b 45 f4             	mov    -0xc(%ebp),%eax
 8049974:	89 04 24             	mov    %eax,(%esp)
 8049977:	e8 ac 1a 00 00       	call   804b428 <memset>
 804997c:	83 7d f0 00          	cmpl   $0x0,-0x10(%ebp)
 8049980:	74 20                	je     80499a2 <malloc_pages+0x192>
 8049982:	8b 83 10 01 00 00    	mov    0x110(%ebx),%eax
 8049988:	85 c0                	test   %eax,%eax
 804998a:	75 0b                	jne    8049997 <malloc_pages+0x187>
 804998c:	8b 45 f0             	mov    -0x10(%ebp),%eax
 804998f:	89 83 10 01 00 00    	mov    %eax,0x110(%ebx)
 8049995:	eb 0b                	jmp    80499a2 <malloc_pages+0x192>
 8049997:	8b 45 f0             	mov    -0x10(%ebp),%eax
 804999a:	89 04 24             	mov    %eax,(%esp)
 804999d:	e8 60 0f 00 00       	call   804a902 <ifree>
 80499a2:	8b 45 f4             	mov    -0xc(%ebp),%eax
 80499a5:	83 c4 34             	add    $0x34,%esp
 80499a8:	5b                   	pop    %ebx
 80499a9:	5d                   	pop    %ebp
 80499aa:	c3                   	ret    

080499ab <malloc_make_chunks>:
 80499ab:	55                   	push   %ebp
 80499ac:	89 e5                	mov    %esp,%ebp
 80499ae:	57                   	push   %edi
 80499af:	56                   	push   %esi
 80499b0:	53                   	push   %ebx
 80499b1:	83 ec 4c             	sub    $0x4c,%esp
 80499b4:	e8 52 f7 ff ff       	call   804910b <__i686.get_pc_thunk.bx>
 80499b9:	81 c3 8f 4c 00 00    	add    $0x4c8f,%ebx
 80499bf:	c7 04 24 00 10 00 00 	movl   $0x1000,(%esp)
 80499c6:	e8 45 fe ff ff       	call   8049810 <malloc_pages>
 80499cb:	89 45 d8             	mov    %eax,-0x28(%ebp)
 80499ce:	83 7d d8 00          	cmpl   $0x0,-0x28(%ebp)
 80499d2:	75 0a                	jne    80499de <malloc_make_chunks+0x33>
 80499d4:	b8 00 00 00 00       	mov    $0x0,%eax
 80499d9:	e9 16 02 00 00       	jmp    8049bf4 <malloc_make_chunks+0x249>
 80499de:	c7 45 dc 10 00 00 00 	movl   $0x10,-0x24(%ebp)
 80499e5:	8b 45 08             	mov    0x8(%ebp),%eax
 80499e8:	ba 00 10 00 00       	mov    $0x1000,%edx
 80499ed:	89 d6                	mov    %edx,%esi
 80499ef:	89 c1                	mov    %eax,%ecx
 80499f1:	d3 ee                	shr    %cl,%esi
 80499f3:	89 f0                	mov    %esi,%eax
 80499f5:	83 c0 1f             	add    $0x1f,%eax
 80499f8:	c1 e8 05             	shr    $0x5,%eax
 80499fb:	c1 e0 02             	shl    $0x2,%eax
 80499fe:	01 45 dc             	add    %eax,-0x24(%ebp)
 8049a01:	8b 45 08             	mov    0x8(%ebp),%eax
 8049a04:	ba 01 00 00 00       	mov    $0x1,%edx
 8049a09:	89 c1                	mov    %eax,%ecx
 8049a0b:	d3 e2                	shl    %cl,%edx
 8049a0d:	8b 45 dc             	mov    -0x24(%ebp),%eax
 8049a10:	01 c0                	add    %eax,%eax
 8049a12:	39 c2                	cmp    %eax,%edx
 8049a14:	77 08                	ja     8049a1e <malloc_make_chunks+0x73>
 8049a16:	8b 45 d8             	mov    -0x28(%ebp),%eax
 8049a19:	89 45 e4             	mov    %eax,-0x1c(%ebp)
 8049a1c:	eb 29                	jmp    8049a47 <malloc_make_chunks+0x9c>
 8049a1e:	8b 45 dc             	mov    -0x24(%ebp),%eax
 8049a21:	89 04 24             	mov    %eax,(%esp)
 8049a24:	e8 85 05 00 00       	call   8049fae <imalloc>
 8049a29:	89 45 e4             	mov    %eax,-0x1c(%ebp)
 8049a2c:	83 7d e4 00          	cmpl   $0x0,-0x1c(%ebp)
 8049a30:	75 15                	jne    8049a47 <malloc_make_chunks+0x9c>
 8049a32:	8b 45 d8             	mov    -0x28(%ebp),%eax
 8049a35:	89 04 24             	mov    %eax,(%esp)
 8049a38:	e8 c5 0e 00 00       	call   804a902 <ifree>
 8049a3d:	b8 00 00 00 00       	mov    $0x0,%eax
 8049a42:	e9 ad 01 00 00       	jmp    8049bf4 <malloc_make_chunks+0x249>
 8049a47:	8b 45 08             	mov    0x8(%ebp),%eax
 8049a4a:	ba 01 00 00 00       	mov    $0x1,%edx
 8049a4f:	89 d6                	mov    %edx,%esi
 8049a51:	89 c1                	mov    %eax,%ecx
 8049a53:	d3 e6                	shl    %cl,%esi
 8049a55:	89 f0                	mov    %esi,%eax
 8049a57:	89 c2                	mov    %eax,%edx
 8049a59:	8b 45 e4             	mov    -0x1c(%ebp),%eax
 8049a5c:	66 89 50 08          	mov    %dx,0x8(%eax)
 8049a60:	8b 45 08             	mov    0x8(%ebp),%eax
 8049a63:	89 c2                	mov    %eax,%edx
 8049a65:	8b 45 e4             	mov    -0x1c(%ebp),%eax
 8049a68:	66 89 50 0a          	mov    %dx,0xa(%eax)
 8049a6c:	8b 45 08             	mov    0x8(%ebp),%eax
 8049a6f:	ba 00 10 00 00       	mov    $0x1000,%edx
 8049a74:	89 d6                	mov    %edx,%esi
 8049a76:	89 c1                	mov    %eax,%ecx
 8049a78:	d3 ee                	shr    %cl,%esi
 8049a7a:	89 f0                	mov    %esi,%eax
 8049a7c:	89 c2                	mov    %eax,%edx
 8049a7e:	8b 45 e4             	mov    -0x1c(%ebp),%eax
 8049a81:	66 89 50 0c          	mov    %dx,0xc(%eax)
 8049a85:	8b 45 e4             	mov    -0x1c(%ebp),%eax
 8049a88:	0f b7 50 0c          	movzwl 0xc(%eax),%edx
 8049a8c:	8b 45 e4             	mov    -0x1c(%ebp),%eax
 8049a8f:	66 89 50 0e          	mov    %dx,0xe(%eax)
 8049a93:	8b 45 e4             	mov    -0x1c(%ebp),%eax
 8049a96:	8b 55 d8             	mov    -0x28(%ebp),%edx
 8049a99:	89 50 04             	mov    %edx,0x4(%eax)
 8049a9c:	8b 45 e4             	mov    -0x1c(%ebp),%eax
 8049a9f:	0f b7 40 0e          	movzwl 0xe(%eax),%eax
 8049aa3:	0f b7 c0             	movzwl %ax,%eax
 8049aa6:	89 45 d4             	mov    %eax,-0x2c(%ebp)
 8049aa9:	c7 45 e0 00 00 00 00 	movl   $0x0,-0x20(%ebp)
 8049ab0:	eb 19                	jmp    8049acb <malloc_make_chunks+0x120>
 8049ab2:	8b 45 e0             	mov    -0x20(%ebp),%eax
 8049ab5:	89 c2                	mov    %eax,%edx
 8049ab7:	c1 ea 05             	shr    $0x5,%edx
 8049aba:	8b 45 e4             	mov    -0x1c(%ebp),%eax
 8049abd:	83 c2 04             	add    $0x4,%edx
 8049ac0:	c7 04 90 ff ff ff ff 	movl   $0xffffffff,(%eax,%edx,4)
 8049ac7:	83 45 e0 20          	addl   $0x20,-0x20(%ebp)
 8049acb:	8b 45 e0             	mov    -0x20(%ebp),%eax
 8049ace:	8b 55 d4             	mov    -0x2c(%ebp),%edx
 8049ad1:	89 d7                	mov    %edx,%edi
 8049ad3:	29 c7                	sub    %eax,%edi
 8049ad5:	89 f8                	mov    %edi,%eax
 8049ad7:	83 f8 1f             	cmp    $0x1f,%eax
 8049ada:	77 d6                	ja     8049ab2 <malloc_make_chunks+0x107>
 8049adc:	eb 36                	jmp    8049b14 <malloc_make_chunks+0x169>
 8049ade:	8b 45 e0             	mov    -0x20(%ebp),%eax
 8049ae1:	c1 e8 05             	shr    $0x5,%eax
 8049ae4:	8b 55 e4             	mov    -0x1c(%ebp),%edx
 8049ae7:	8d 48 04             	lea    0x4(%eax),%ecx
 8049aea:	8b 34 8a             	mov    (%edx,%ecx,4),%esi
 8049aed:	8b 55 e0             	mov    -0x20(%ebp),%edx
 8049af0:	83 e2 1f             	and    $0x1f,%edx
 8049af3:	c7 45 c4 01 00 00 00 	movl   $0x1,-0x3c(%ebp)
 8049afa:	8b 7d c4             	mov    -0x3c(%ebp),%edi
 8049afd:	89 d1                	mov    %edx,%ecx
 8049aff:	d3 e7                	shl    %cl,%edi
 8049b01:	89 fa                	mov    %edi,%edx
 8049b03:	89 f1                	mov    %esi,%ecx
 8049b05:	09 d1                	or     %edx,%ecx
 8049b07:	8b 55 e4             	mov    -0x1c(%ebp),%edx
 8049b0a:	83 c0 04             	add    $0x4,%eax
 8049b0d:	89 0c 82             	mov    %ecx,(%edx,%eax,4)
 8049b10:	83 45 e0 01          	addl   $0x1,-0x20(%ebp)
 8049b14:	8b 45 e0             	mov    -0x20(%ebp),%eax
 8049b17:	3b 45 d4             	cmp    -0x2c(%ebp),%eax
 8049b1a:	72 c2                	jb     8049ade <malloc_make_chunks+0x133>
 8049b1c:	8b 45 e4             	mov    -0x1c(%ebp),%eax
 8049b1f:	8b 40 04             	mov    0x4(%eax),%eax
 8049b22:	3b 45 e4             	cmp    -0x1c(%ebp),%eax
 8049b25:	75 7c                	jne    8049ba3 <malloc_make_chunks+0x1f8>
 8049b27:	c7 45 e0 00 00 00 00 	movl   $0x0,-0x20(%ebp)
 8049b2e:	eb 6d                	jmp    8049b9d <malloc_make_chunks+0x1f2>
 8049b30:	8b 45 e0             	mov    -0x20(%ebp),%eax
 8049b33:	c1 e8 05             	shr    $0x5,%eax
 8049b36:	8b 55 e4             	mov    -0x1c(%ebp),%edx
 8049b39:	8d 48 04             	lea    0x4(%eax),%ecx
 8049b3c:	8b 34 8a             	mov    (%edx,%ecx,4),%esi
 8049b3f:	8b 55 e0             	mov    -0x20(%ebp),%edx
 8049b42:	83 e2 1f             	and    $0x1f,%edx
 8049b45:	c7 45 c4 01 00 00 00 	movl   $0x1,-0x3c(%ebp)
 8049b4c:	8b 7d c4             	mov    -0x3c(%ebp),%edi
 8049b4f:	89 d1                	mov    %edx,%ecx
 8049b51:	d3 e7                	shl    %cl,%edi
 8049b53:	89 fa                	mov    %edi,%edx
 8049b55:	f7 d2                	not    %edx
 8049b57:	89 f1                	mov    %esi,%ecx
 8049b59:	21 d1                	and    %edx,%ecx
 8049b5b:	8b 55 e4             	mov    -0x1c(%ebp),%edx
 8049b5e:	83 c0 04             	add    $0x4,%eax
 8049b61:	89 0c 82             	mov    %ecx,(%edx,%eax,4)
 8049b64:	8b 45 e4             	mov    -0x1c(%ebp),%eax
 8049b67:	0f b7 40 0c          	movzwl 0xc(%eax),%eax
 8049b6b:	8d 50 ff             	lea    -0x1(%eax),%edx
 8049b6e:	8b 45 e4             	mov    -0x1c(%ebp),%eax
 8049b71:	66 89 50 0c          	mov    %dx,0xc(%eax)
 8049b75:	8b 45 e4             	mov    -0x1c(%ebp),%eax
 8049b78:	0f b7 40 0e          	movzwl 0xe(%eax),%eax
 8049b7c:	8d 50 ff             	lea    -0x1(%eax),%edx
 8049b7f:	8b 45 e4             	mov    -0x1c(%ebp),%eax
 8049b82:	66 89 50 0e          	mov    %dx,0xe(%eax)
 8049b86:	8b 45 08             	mov    0x8(%ebp),%eax
 8049b89:	ba 01 00 00 00       	mov    $0x1,%edx
 8049b8e:	89 d6                	mov    %edx,%esi
 8049b90:	89 c1                	mov    %eax,%ecx
 8049b92:	d3 e6                	shl    %cl,%esi
 8049b94:	89 f0                	mov    %esi,%eax
 8049b96:	29 45 dc             	sub    %eax,-0x24(%ebp)
 8049b99:	83 45 e0 01          	addl   $0x1,-0x20(%ebp)
 8049b9d:	83 7d dc 00          	cmpl   $0x0,-0x24(%ebp)
 8049ba1:	75 8d                	jne    8049b30 <malloc_make_chunks+0x185>
 8049ba3:	8b 83 d0 00 00 00    	mov    0xd0(%ebx),%eax
 8049ba9:	8b 55 d8             	mov    -0x28(%ebp),%edx
 8049bac:	89 d1                	mov    %edx,%ecx
 8049bae:	c1 e9 0c             	shr    $0xc,%ecx
 8049bb1:	8b 93 c8 00 00 00    	mov    0xc8(%ebx),%edx
 8049bb7:	89 cf                	mov    %ecx,%edi
 8049bb9:	29 d7                	sub    %edx,%edi
 8049bbb:	89 fa                	mov    %edi,%edx
 8049bbd:	c1 e2 02             	shl    $0x2,%edx
 8049bc0:	01 c2                	add    %eax,%edx
 8049bc2:	8b 45 e4             	mov    -0x1c(%ebp),%eax
 8049bc5:	89 02                	mov    %eax,(%edx)
 8049bc7:	8b 83 d0 00 00 00    	mov    0xd0(%ebx),%eax
 8049bcd:	8b 55 08             	mov    0x8(%ebp),%edx
 8049bd0:	c1 e2 02             	shl    $0x2,%edx
 8049bd3:	01 d0                	add    %edx,%eax
 8049bd5:	8b 10                	mov    (%eax),%edx
 8049bd7:	8b 45 e4             	mov    -0x1c(%ebp),%eax
 8049bda:	89 10                	mov    %edx,(%eax)
 8049bdc:	8b 83 d0 00 00 00    	mov    0xd0(%ebx),%eax
 8049be2:	8b 55 08             	mov    0x8(%ebp),%edx
 8049be5:	c1 e2 02             	shl    $0x2,%edx
 8049be8:	01 c2                	add    %eax,%edx
 8049bea:	8b 45 e4             	mov    -0x1c(%ebp),%eax
 8049bed:	89 02                	mov    %eax,(%edx)
 8049bef:	b8 01 00 00 00       	mov    $0x1,%eax
 8049bf4:	83 c4 4c             	add    $0x4c,%esp
 8049bf7:	5b                   	pop    %ebx
 8049bf8:	5e                   	pop    %esi
 8049bf9:	5f                   	pop    %edi
 8049bfa:	5d                   	pop    %ebp
 8049bfb:	c3                   	ret    

08049bfc <malloc_bytes>:
 8049bfc:	55                   	push   %ebp
 8049bfd:	89 e5                	mov    %esp,%ebp
 8049bff:	57                   	push   %edi
 8049c00:	56                   	push   %esi
 8049c01:	53                   	push   %ebx
 8049c02:	83 ec 5c             	sub    $0x5c,%esp
 8049c05:	e8 01 f5 ff ff       	call   804910b <__i686.get_pc_thunk.bx>
 8049c0a:	81 c3 3e 4a 00 00    	add    $0x4a3e,%ebx
 8049c10:	83 7d 08 0f          	cmpl   $0xf,0x8(%ebp)
 8049c14:	77 07                	ja     8049c1d <malloc_bytes+0x21>
 8049c16:	c7 45 08 10 00 00 00 	movl   $0x10,0x8(%ebp)
 8049c1d:	c7 45 e0 01 00 00 00 	movl   $0x1,-0x20(%ebp)
 8049c24:	8b 45 08             	mov    0x8(%ebp),%eax
 8049c27:	83 e8 01             	sub    $0x1,%eax
 8049c2a:	89 45 e4             	mov    %eax,-0x1c(%ebp)
 8049c2d:	eb 04                	jmp    8049c33 <malloc_bytes+0x37>
 8049c2f:	83 45 e0 01          	addl   $0x1,-0x20(%ebp)
 8049c33:	d1 7d e4             	sarl   -0x1c(%ebp)
 8049c36:	83 7d e4 00          	cmpl   $0x0,-0x1c(%ebp)
 8049c3a:	75 f3                	jne    8049c2f <malloc_bytes+0x33>
 8049c3c:	8b 83 d0 00 00 00    	mov    0xd0(%ebx),%eax
 8049c42:	8b 55 e0             	mov    -0x20(%ebp),%edx
 8049c45:	c1 e2 02             	shl    $0x2,%edx
 8049c48:	01 d0                	add    %edx,%eax
 8049c4a:	8b 00                	mov    (%eax),%eax
 8049c4c:	85 c0                	test   %eax,%eax
 8049c4e:	0f 85 49 02 00 00    	jne    8049e9d <malloc_bytes+0x2a1>
 8049c54:	8b 45 e0             	mov    -0x20(%ebp),%eax
 8049c57:	89 45 cc             	mov    %eax,-0x34(%ebp)
 8049c5a:	c7 04 24 00 10 00 00 	movl   $0x1000,(%esp)
 8049c61:	e8 aa fb ff ff       	call   8049810 <malloc_pages>
 8049c66:	89 45 c8             	mov    %eax,-0x38(%ebp)
 8049c69:	83 7d c8 00          	cmpl   $0x0,-0x38(%ebp)
 8049c6d:	75 0a                	jne    8049c79 <malloc_bytes+0x7d>
 8049c6f:	b8 00 00 00 00       	mov    $0x0,%eax
 8049c74:	e9 16 02 00 00       	jmp    8049e8f <malloc_bytes+0x293>
 8049c79:	c7 45 c4 10 00 00 00 	movl   $0x10,-0x3c(%ebp)
 8049c80:	8b 45 cc             	mov    -0x34(%ebp),%eax
 8049c83:	ba 00 10 00 00       	mov    $0x1000,%edx
 8049c88:	89 d6                	mov    %edx,%esi
 8049c8a:	89 c1                	mov    %eax,%ecx
 8049c8c:	d3 ee                	shr    %cl,%esi
 8049c8e:	89 f0                	mov    %esi,%eax
 8049c90:	83 c0 1f             	add    $0x1f,%eax
 8049c93:	c1 e8 05             	shr    $0x5,%eax
 8049c96:	c1 e0 02             	shl    $0x2,%eax
 8049c99:	01 45 c4             	add    %eax,-0x3c(%ebp)
 8049c9c:	8b 45 cc             	mov    -0x34(%ebp),%eax
 8049c9f:	ba 01 00 00 00       	mov    $0x1,%edx
 8049ca4:	89 c1                	mov    %eax,%ecx
 8049ca6:	d3 e2                	shl    %cl,%edx
 8049ca8:	8b 45 c4             	mov    -0x3c(%ebp),%eax
 8049cab:	01 c0                	add    %eax,%eax
 8049cad:	39 c2                	cmp    %eax,%edx
 8049caf:	77 08                	ja     8049cb9 <malloc_bytes+0xbd>
 8049cb1:	8b 45 c8             	mov    -0x38(%ebp),%eax
 8049cb4:	89 45 c0             	mov    %eax,-0x40(%ebp)
 8049cb7:	eb 29                	jmp    8049ce2 <malloc_bytes+0xe6>
 8049cb9:	8b 45 c4             	mov    -0x3c(%ebp),%eax
 8049cbc:	89 04 24             	mov    %eax,(%esp)
 8049cbf:	e8 ea 02 00 00       	call   8049fae <imalloc>
 8049cc4:	89 45 c0             	mov    %eax,-0x40(%ebp)
 8049cc7:	83 7d c0 00          	cmpl   $0x0,-0x40(%ebp)
 8049ccb:	75 15                	jne    8049ce2 <malloc_bytes+0xe6>
 8049ccd:	8b 45 c8             	mov    -0x38(%ebp),%eax
 8049cd0:	89 04 24             	mov    %eax,(%esp)
 8049cd3:	e8 2a 0c 00 00       	call   804a902 <ifree>
 8049cd8:	b8 00 00 00 00       	mov    $0x0,%eax
 8049cdd:	e9 ad 01 00 00       	jmp    8049e8f <malloc_bytes+0x293>
 8049ce2:	8b 45 cc             	mov    -0x34(%ebp),%eax
 8049ce5:	ba 01 00 00 00       	mov    $0x1,%edx
 8049cea:	89 d6                	mov    %edx,%esi
 8049cec:	89 c1                	mov    %eax,%ecx
 8049cee:	d3 e6                	shl    %cl,%esi
 8049cf0:	89 f0                	mov    %esi,%eax
 8049cf2:	89 c2                	mov    %eax,%edx
 8049cf4:	8b 45 c0             	mov    -0x40(%ebp),%eax
 8049cf7:	66 89 50 08          	mov    %dx,0x8(%eax)
 8049cfb:	8b 45 cc             	mov    -0x34(%ebp),%eax
 8049cfe:	89 c2                	mov    %eax,%edx
 8049d00:	8b 45 c0             	mov    -0x40(%ebp),%eax
 8049d03:	66 89 50 0a          	mov    %dx,0xa(%eax)
 8049d07:	8b 45 cc             	mov    -0x34(%ebp),%eax
 8049d0a:	ba 00 10 00 00       	mov    $0x1000,%edx
 8049d0f:	89 d6                	mov    %edx,%esi
 8049d11:	89 c1                	mov    %eax,%ecx
 8049d13:	d3 ee                	shr    %cl,%esi
 8049d15:	89 f0                	mov    %esi,%eax
 8049d17:	89 c2                	mov    %eax,%edx
 8049d19:	8b 45 c0             	mov    -0x40(%ebp),%eax
 8049d1c:	66 89 50 0c          	mov    %dx,0xc(%eax)
 8049d20:	8b 45 c0             	mov    -0x40(%ebp),%eax
 8049d23:	0f b7 50 0c          	movzwl 0xc(%eax),%edx
 8049d27:	8b 45 c0             	mov    -0x40(%ebp),%eax
 8049d2a:	66 89 50 0e          	mov    %dx,0xe(%eax)
 8049d2e:	8b 45 c0             	mov    -0x40(%ebp),%eax
 8049d31:	8b 55 c8             	mov    -0x38(%ebp),%edx
 8049d34:	89 50 04             	mov    %edx,0x4(%eax)
 8049d37:	8b 45 c0             	mov    -0x40(%ebp),%eax
 8049d3a:	0f b7 40 0e          	movzwl 0xe(%eax),%eax
 8049d3e:	0f b7 c0             	movzwl %ax,%eax
 8049d41:	89 45 bc             	mov    %eax,-0x44(%ebp)
 8049d44:	c7 45 b8 00 00 00 00 	movl   $0x0,-0x48(%ebp)
 8049d4b:	eb 19                	jmp    8049d66 <malloc_bytes+0x16a>
 8049d4d:	8b 45 b8             	mov    -0x48(%ebp),%eax
 8049d50:	89 c2                	mov    %eax,%edx
 8049d52:	c1 ea 05             	shr    $0x5,%edx
 8049d55:	8b 45 c0             	mov    -0x40(%ebp),%eax
 8049d58:	83 c2 04             	add    $0x4,%edx
 8049d5b:	c7 04 90 ff ff ff ff 	movl   $0xffffffff,(%eax,%edx,4)
 8049d62:	83 45 b8 20          	addl   $0x20,-0x48(%ebp)
 8049d66:	8b 45 b8             	mov    -0x48(%ebp),%eax
 8049d69:	8b 55 bc             	mov    -0x44(%ebp),%edx
 8049d6c:	89 d7                	mov    %edx,%edi
 8049d6e:	29 c7                	sub    %eax,%edi
 8049d70:	89 f8                	mov    %edi,%eax
 8049d72:	83 f8 1f             	cmp    $0x1f,%eax
 8049d75:	77 d6                	ja     8049d4d <malloc_bytes+0x151>
 8049d77:	eb 36                	jmp    8049daf <malloc_bytes+0x1b3>
 8049d79:	8b 45 b8             	mov    -0x48(%ebp),%eax
 8049d7c:	c1 e8 05             	shr    $0x5,%eax
 8049d7f:	8b 55 c0             	mov    -0x40(%ebp),%edx
 8049d82:	8d 48 04             	lea    0x4(%eax),%ecx
 8049d85:	8b 34 8a             	mov    (%edx,%ecx,4),%esi
 8049d88:	8b 55 b8             	mov    -0x48(%ebp),%edx
 8049d8b:	83 e2 1f             	and    $0x1f,%edx
 8049d8e:	c7 45 b4 01 00 00 00 	movl   $0x1,-0x4c(%ebp)
 8049d95:	8b 7d b4             	mov    -0x4c(%ebp),%edi
 8049d98:	89 d1                	mov    %edx,%ecx
 8049d9a:	d3 e7                	shl    %cl,%edi
 8049d9c:	89 fa                	mov    %edi,%edx
 8049d9e:	89 f1                	mov    %esi,%ecx
 8049da0:	09 d1                	or     %edx,%ecx
 8049da2:	8b 55 c0             	mov    -0x40(%ebp),%edx
 8049da5:	83 c0 04             	add    $0x4,%eax
 8049da8:	89 0c 82             	mov    %ecx,(%edx,%eax,4)
 8049dab:	83 45 b8 01          	addl   $0x1,-0x48(%ebp)
 8049daf:	8b 45 bc             	mov    -0x44(%ebp),%eax
 8049db2:	3b 45 b8             	cmp    -0x48(%ebp),%eax
 8049db5:	77 c2                	ja     8049d79 <malloc_bytes+0x17d>
 8049db7:	8b 45 c0             	mov    -0x40(%ebp),%eax
 8049dba:	8b 40 04             	mov    0x4(%eax),%eax
 8049dbd:	39 45 c0             	cmp    %eax,-0x40(%ebp)
 8049dc0:	75 7c                	jne    8049e3e <malloc_bytes+0x242>
 8049dc2:	c7 45 b8 00 00 00 00 	movl   $0x0,-0x48(%ebp)
 8049dc9:	eb 6d                	jmp    8049e38 <malloc_bytes+0x23c>
 8049dcb:	8b 45 b8             	mov    -0x48(%ebp),%eax
 8049dce:	c1 e8 05             	shr    $0x5,%eax
 8049dd1:	8b 55 c0             	mov    -0x40(%ebp),%edx
 8049dd4:	8d 48 04             	lea    0x4(%eax),%ecx
 8049dd7:	8b 34 8a             	mov    (%edx,%ecx,4),%esi
 8049dda:	8b 55 b8             	mov    -0x48(%ebp),%edx
 8049ddd:	83 e2 1f             	and    $0x1f,%edx
 8049de0:	c7 45 b4 01 00 00 00 	movl   $0x1,-0x4c(%ebp)
 8049de7:	8b 7d b4             	mov    -0x4c(%ebp),%edi
 8049dea:	89 d1                	mov    %edx,%ecx
 8049dec:	d3 e7                	shl    %cl,%edi
 8049dee:	89 fa                	mov    %edi,%edx
 8049df0:	f7 d2                	not    %edx
 8049df2:	89 f1                	mov    %esi,%ecx
 8049df4:	21 d1                	and    %edx,%ecx
 8049df6:	8b 55 c0             	mov    -0x40(%ebp),%edx
 8049df9:	83 c0 04             	add    $0x4,%eax
 8049dfc:	89 0c 82             	mov    %ecx,(%edx,%eax,4)
 8049dff:	8b 45 c0             	mov    -0x40(%ebp),%eax
 8049e02:	0f b7 40 0c          	movzwl 0xc(%eax),%eax
 8049e06:	8d 50 ff             	lea    -0x1(%eax),%edx
 8049e09:	8b 45 c0             	mov    -0x40(%ebp),%eax
 8049e0c:	66 89 50 0c          	mov    %dx,0xc(%eax)
 8049e10:	8b 45 c0             	mov    -0x40(%ebp),%eax
 8049e13:	0f b7 40 0e          	movzwl 0xe(%eax),%eax
 8049e17:	8d 50 ff             	lea    -0x1(%eax),%edx
 8049e1a:	8b 45 c0             	mov    -0x40(%ebp),%eax
 8049e1d:	66 89 50 0e          	mov    %dx,0xe(%eax)
 8049e21:	8b 45 cc             	mov    -0x34(%ebp),%eax
 8049e24:	ba 01 00 00 00       	mov    $0x1,%edx
 8049e29:	89 d6                	mov    %edx,%esi
 8049e2b:	89 c1                	mov    %eax,%ecx
 8049e2d:	d3 e6                	shl    %cl,%esi
 8049e2f:	89 f0                	mov    %esi,%eax
 8049e31:	29 45 c4             	sub    %eax,-0x3c(%ebp)
 8049e34:	83 45 b8 01          	addl   $0x1,-0x48(%ebp)
 8049e38:	83 7d c4 00          	cmpl   $0x0,-0x3c(%ebp)
 8049e3c:	75 8d                	jne    8049dcb <malloc_bytes+0x1cf>
 8049e3e:	8b 83 d0 00 00 00    	mov    0xd0(%ebx),%eax
 8049e44:	8b 55 c8             	mov    -0x38(%ebp),%edx
 8049e47:	89 d1                	mov    %edx,%ecx
 8049e49:	c1 e9 0c             	shr    $0xc,%ecx
 8049e4c:	8b 93 c8 00 00 00    	mov    0xc8(%ebx),%edx
 8049e52:	89 cf                	mov    %ecx,%edi
 8049e54:	29 d7                	sub    %edx,%edi
 8049e56:	89 fa                	mov    %edi,%edx
 8049e58:	c1 e2 02             	shl    $0x2,%edx
 8049e5b:	01 c2                	add    %eax,%edx
 8049e5d:	8b 45 c0             	mov    -0x40(%ebp),%eax
 8049e60:	89 02                	mov    %eax,(%edx)
 8049e62:	8b 83 d0 00 00 00    	mov    0xd0(%ebx),%eax
 8049e68:	8b 55 cc             	mov    -0x34(%ebp),%edx
 8049e6b:	c1 e2 02             	shl    $0x2,%edx
 8049e6e:	01 d0                	add    %edx,%eax
 8049e70:	8b 10                	mov    (%eax),%edx
 8049e72:	8b 45 c0             	mov    -0x40(%ebp),%eax
 8049e75:	89 10                	mov    %edx,(%eax)
 8049e77:	8b 83 d0 00 00 00    	mov    0xd0(%ebx),%eax
 8049e7d:	8b 55 cc             	mov    -0x34(%ebp),%edx
 8049e80:	c1 e2 02             	shl    $0x2,%edx
 8049e83:	01 c2                	add    %eax,%edx
 8049e85:	8b 45 c0             	mov    -0x40(%ebp),%eax
 8049e88:	89 02                	mov    %eax,(%edx)
 8049e8a:	b8 01 00 00 00       	mov    $0x1,%eax
 8049e8f:	85 c0                	test   %eax,%eax
 8049e91:	75 0a                	jne    8049e9d <malloc_bytes+0x2a1>
 8049e93:	b8 00 00 00 00       	mov    $0x0,%eax
 8049e98:	e9 09 01 00 00       	jmp    8049fa6 <malloc_bytes+0x3aa>
 8049e9d:	8b 83 d0 00 00 00    	mov    0xd0(%ebx),%eax
 8049ea3:	8b 55 e0             	mov    -0x20(%ebp),%edx
 8049ea6:	c1 e2 02             	shl    $0x2,%edx
 8049ea9:	01 d0                	add    %edx,%eax
 8049eab:	8b 00                	mov    (%eax),%eax
 8049ead:	89 45 d0             	mov    %eax,-0x30(%ebp)
 8049eb0:	8b 45 d0             	mov    -0x30(%ebp),%eax
 8049eb3:	83 c0 10             	add    $0x10,%eax
 8049eb6:	89 45 d4             	mov    %eax,-0x2c(%ebp)
 8049eb9:	eb 04                	jmp    8049ebf <malloc_bytes+0x2c3>
 8049ebb:	83 45 d4 04          	addl   $0x4,-0x2c(%ebp)
 8049ebf:	8b 45 d4             	mov    -0x2c(%ebp),%eax
 8049ec2:	8b 00                	mov    (%eax),%eax
 8049ec4:	85 c0                	test   %eax,%eax
 8049ec6:	74 f3                	je     8049ebb <malloc_bytes+0x2bf>
 8049ec8:	c7 45 dc 01 00 00 00 	movl   $0x1,-0x24(%ebp)
 8049ecf:	c7 45 d8 00 00 00 00 	movl   $0x0,-0x28(%ebp)
 8049ed6:	eb 0c                	jmp    8049ee4 <malloc_bytes+0x2e8>
 8049ed8:	8b 45 dc             	mov    -0x24(%ebp),%eax
 8049edb:	01 c0                	add    %eax,%eax
 8049edd:	89 45 dc             	mov    %eax,-0x24(%ebp)
 8049ee0:	83 45 d8 01          	addl   $0x1,-0x28(%ebp)
 8049ee4:	8b 45 d4             	mov    -0x2c(%ebp),%eax
 8049ee7:	8b 00                	mov    (%eax),%eax
 8049ee9:	23 45 dc             	and    -0x24(%ebp),%eax
 8049eec:	85 c0                	test   %eax,%eax
 8049eee:	74 e8                	je     8049ed8 <malloc_bytes+0x2dc>
 8049ef0:	8b 45 d4             	mov    -0x2c(%ebp),%eax
 8049ef3:	8b 00                	mov    (%eax),%eax
 8049ef5:	89 c2                	mov    %eax,%edx
 8049ef7:	33 55 dc             	xor    -0x24(%ebp),%edx
 8049efa:	8b 45 d4             	mov    -0x2c(%ebp),%eax
 8049efd:	89 10                	mov    %edx,(%eax)
 8049eff:	8b 45 d0             	mov    -0x30(%ebp),%eax
 8049f02:	0f b7 40 0c          	movzwl 0xc(%eax),%eax
 8049f06:	8d 50 ff             	lea    -0x1(%eax),%edx
 8049f09:	8b 45 d0             	mov    -0x30(%ebp),%eax
 8049f0c:	66 89 50 0c          	mov    %dx,0xc(%eax)
 8049f10:	8b 45 d0             	mov    -0x30(%ebp),%eax
 8049f13:	0f b7 40 0c          	movzwl 0xc(%eax),%eax
 8049f17:	66 85 c0             	test   %ax,%ax
 8049f1a:	75 1e                	jne    8049f3a <malloc_bytes+0x33e>
 8049f1c:	8b 83 d0 00 00 00    	mov    0xd0(%ebx),%eax
 8049f22:	8b 55 e0             	mov    -0x20(%ebp),%edx
 8049f25:	c1 e2 02             	shl    $0x2,%edx
 8049f28:	01 c2                	add    %eax,%edx
 8049f2a:	8b 45 d0             	mov    -0x30(%ebp),%eax
 8049f2d:	8b 00                	mov    (%eax),%eax
 8049f2f:	89 02                	mov    %eax,(%edx)
 8049f31:	8b 45 d0             	mov    -0x30(%ebp),%eax
 8049f34:	c7 00 00 00 00 00    	movl   $0x0,(%eax)
 8049f3a:	8b 55 d4             	mov    -0x2c(%ebp),%edx
 8049f3d:	8b 45 d0             	mov    -0x30(%ebp),%eax
 8049f40:	83 c0 10             	add    $0x10,%eax
 8049f43:	89 d1                	mov    %edx,%ecx
 8049f45:	29 c1                	sub    %eax,%ecx
 8049f47:	89 c8                	mov    %ecx,%eax
 8049f49:	c1 f8 02             	sar    $0x2,%eax
 8049f4c:	89 c2                	mov    %eax,%edx
 8049f4e:	c1 e2 05             	shl    $0x5,%edx
 8049f51:	8b 45 d8             	mov    -0x28(%ebp),%eax
 8049f54:	01 d0                	add    %edx,%eax
 8049f56:	89 45 d8             	mov    %eax,-0x28(%ebp)
 8049f59:	8b 45 d0             	mov    -0x30(%ebp),%eax
 8049f5c:	0f b7 40 0a          	movzwl 0xa(%eax),%eax
 8049f60:	0f b7 c0             	movzwl %ax,%eax
 8049f63:	89 c1                	mov    %eax,%ecx
 8049f65:	d3 65 d8             	shll   %cl,-0x28(%ebp)
 8049f68:	8b 83 08 01 00 00    	mov    0x108(%ebx),%eax
 8049f6e:	85 c0                	test   %eax,%eax
 8049f70:	74 29                	je     8049f9b <malloc_bytes+0x39f>
 8049f72:	8b 45 d0             	mov    -0x30(%ebp),%eax
 8049f75:	0f b7 40 08          	movzwl 0x8(%eax),%eax
 8049f79:	0f b7 c0             	movzwl %ax,%eax
 8049f7c:	8b 55 d0             	mov    -0x30(%ebp),%edx
 8049f7f:	8b 4a 04             	mov    0x4(%edx),%ecx
 8049f82:	8b 55 d8             	mov    -0x28(%ebp),%edx
 8049f85:	01 ca                	add    %ecx,%edx
 8049f87:	89 44 24 08          	mov    %eax,0x8(%esp)
 8049f8b:	c7 44 24 04 d0 00 00 	movl   $0xd0,0x4(%esp)
 8049f92:	00 
 8049f93:	89 14 24             	mov    %edx,(%esp)
 8049f96:	e8 8d 14 00 00       	call   804b428 <memset>
 8049f9b:	8b 45 d0             	mov    -0x30(%ebp),%eax
 8049f9e:	8b 50 04             	mov    0x4(%eax),%edx
 8049fa1:	8b 45 d8             	mov    -0x28(%ebp),%eax
 8049fa4:	01 d0                	add    %edx,%eax
 8049fa6:	83 c4 5c             	add    $0x5c,%esp
 8049fa9:	5b                   	pop    %ebx
 8049faa:	5e                   	pop    %esi
 8049fab:	5f                   	pop    %edi
 8049fac:	5d                   	pop    %ebp
 8049fad:	c3                   	ret    

08049fae <imalloc>:
 8049fae:	55                   	push   %ebp
 8049faf:	89 e5                	mov    %esp,%ebp
 8049fb1:	53                   	push   %ebx
 8049fb2:	83 ec 24             	sub    $0x24,%esp
 8049fb5:	e8 51 f1 ff ff       	call   804910b <__i686.get_pc_thunk.bx>
 8049fba:	81 c3 8e 46 00 00    	add    $0x468e,%ebx
 8049fc0:	8b 83 f0 00 00 00    	mov    0xf0(%ebx),%eax
 8049fc6:	85 c0                	test   %eax,%eax
 8049fc8:	74 0c                	je     8049fd6 <imalloc+0x28>
 8049fca:	c7 04 24 01 00 00 00 	movl   $0x1,(%esp)
 8049fd1:	e8 52 e4 ff ff       	call   8048428 <exit>
 8049fd6:	8b 45 08             	mov    0x8(%ebp),%eax
 8049fd9:	05 00 10 00 00       	add    $0x1000,%eax
 8049fde:	3b 45 08             	cmp    0x8(%ebp),%eax
 8049fe1:	73 09                	jae    8049fec <imalloc+0x3e>
 8049fe3:	c7 45 f4 00 00 00 00 	movl   $0x0,-0xc(%ebp)
 8049fea:	eb 27                	jmp    804a013 <imalloc+0x65>
 8049fec:	81 7d 08 00 08 00 00 	cmpl   $0x800,0x8(%ebp)
 8049ff3:	77 10                	ja     804a005 <imalloc+0x57>
 8049ff5:	8b 45 08             	mov    0x8(%ebp),%eax
 8049ff8:	89 04 24             	mov    %eax,(%esp)
 8049ffb:	e8 fc fb ff ff       	call   8049bfc <malloc_bytes>
 804a000:	89 45 f4             	mov    %eax,-0xc(%ebp)
 804a003:	eb 0e                	jmp    804a013 <imalloc+0x65>
 804a005:	8b 45 08             	mov    0x8(%ebp),%eax
 804a008:	89 04 24             	mov    %eax,(%esp)
 804a00b:	e8 00 f8 ff ff       	call   8049810 <malloc_pages>
 804a010:	89 45 f4             	mov    %eax,-0xc(%ebp)
 804a013:	8b 83 ec 00 00 00    	mov    0xec(%ebx),%eax
 804a019:	85 c0                	test   %eax,%eax
 804a01b:	74 14                	je     804a031 <imalloc+0x83>
 804a01d:	83 7d f4 00          	cmpl   $0x0,-0xc(%ebp)
 804a021:	75 0e                	jne    804a031 <imalloc+0x83>
 804a023:	8d 83 12 d9 ff ff    	lea    -0x26ee(%ebx),%eax
 804a029:	89 04 24             	mov    %eax,(%esp)
 804a02c:	e8 df f0 ff ff       	call   8049110 <wrterror>
 804a031:	8b 83 04 01 00 00    	mov    0x104(%ebx),%eax
 804a037:	85 c0                	test   %eax,%eax
 804a039:	74 20                	je     804a05b <imalloc+0xad>
 804a03b:	83 7d f4 00          	cmpl   $0x0,-0xc(%ebp)
 804a03f:	74 1a                	je     804a05b <imalloc+0xad>
 804a041:	8b 45 08             	mov    0x8(%ebp),%eax
 804a044:	89 44 24 08          	mov    %eax,0x8(%esp)
 804a048:	c7 44 24 04 00 00 00 	movl   $0x0,0x4(%esp)
 804a04f:	00 
 804a050:	8b 45 f4             	mov    -0xc(%ebp),%eax
 804a053:	89 04 24             	mov    %eax,(%esp)
 804a056:	e8 cd 13 00 00       	call   804b428 <memset>
 804a05b:	8b 45 f4             	mov    -0xc(%ebp),%eax
 804a05e:	83 c4 24             	add    $0x24,%esp
 804a061:	5b                   	pop    %ebx
 804a062:	5d                   	pop    %ebp
 804a063:	c3                   	ret    

0804a064 <irealloc>:
 804a064:	55                   	push   %ebp
 804a065:	89 e5                	mov    %esp,%ebp
 804a067:	57                   	push   %edi
 804a068:	56                   	push   %esi
 804a069:	53                   	push   %ebx
 804a06a:	83 ec 3c             	sub    $0x3c,%esp
 804a06d:	e8 99 f0 ff ff       	call   804910b <__i686.get_pc_thunk.bx>
 804a072:	81 c3 d6 45 00 00    	add    $0x45d6,%ebx
 804a078:	8b 83 f0 00 00 00    	mov    0xf0(%ebx),%eax
 804a07e:	85 c0                	test   %eax,%eax
 804a080:	74 0c                	je     804a08e <irealloc+0x2a>
 804a082:	c7 04 24 01 00 00 00 	movl   $0x1,(%esp)
 804a089:	e8 9a e3 ff ff       	call   8048428 <exit>
 804a08e:	8b 45 08             	mov    0x8(%ebp),%eax
 804a091:	89 c2                	mov    %eax,%edx
 804a093:	c1 ea 0c             	shr    $0xc,%edx
 804a096:	8b 83 c8 00 00 00    	mov    0xc8(%ebx),%eax
 804a09c:	89 d1                	mov    %edx,%ecx
 804a09e:	29 c1                	sub    %eax,%ecx
 804a0a0:	89 c8                	mov    %ecx,%eax
 804a0a2:	89 45 dc             	mov    %eax,-0x24(%ebp)
 804a0a5:	83 7d dc 0b          	cmpl   $0xb,-0x24(%ebp)
 804a0a9:	77 18                	ja     804a0c3 <irealloc+0x5f>
 804a0ab:	8d 83 28 d9 ff ff    	lea    -0x26d8(%ebx),%eax
 804a0b1:	89 04 24             	mov    %eax,(%esp)
 804a0b4:	e8 22 f1 ff ff       	call   80491db <wrtwarning>
 804a0b9:	b8 00 00 00 00       	mov    $0x0,%eax
 804a0be:	e9 0c 02 00 00       	jmp    804a2cf <irealloc+0x26b>
 804a0c3:	8b 83 cc 00 00 00    	mov    0xcc(%ebx),%eax
 804a0c9:	39 45 dc             	cmp    %eax,-0x24(%ebp)
 804a0cc:	76 18                	jbe    804a0e6 <irealloc+0x82>
 804a0ce:	8d 83 50 d9 ff ff    	lea    -0x26b0(%ebx),%eax
 804a0d4:	89 04 24             	mov    %eax,(%esp)
 804a0d7:	e8 ff f0 ff ff       	call   80491db <wrtwarning>
 804a0dc:	b8 00 00 00 00       	mov    $0x0,%eax
 804a0e1:	e9 e9 01 00 00       	jmp    804a2cf <irealloc+0x26b>
 804a0e6:	8b 83 d0 00 00 00    	mov    0xd0(%ebx),%eax
 804a0ec:	8b 55 dc             	mov    -0x24(%ebp),%edx
 804a0ef:	c1 e2 02             	shl    $0x2,%edx
 804a0f2:	01 d0                	add    %edx,%eax
 804a0f4:	89 45 e0             	mov    %eax,-0x20(%ebp)
 804a0f7:	8b 45 e0             	mov    -0x20(%ebp),%eax
 804a0fa:	8b 00                	mov    (%eax),%eax
 804a0fc:	83 f8 02             	cmp    $0x2,%eax
 804a0ff:	75 75                	jne    804a176 <irealloc+0x112>
 804a101:	8b 45 08             	mov    0x8(%ebp),%eax
 804a104:	25 ff 0f 00 00       	and    $0xfff,%eax
 804a109:	85 c0                	test   %eax,%eax
 804a10b:	74 18                	je     804a125 <irealloc+0xc1>
 804a10d:	8d 83 77 d9 ff ff    	lea    -0x2689(%ebx),%eax
 804a113:	89 04 24             	mov    %eax,(%esp)
 804a116:	e8 c0 f0 ff ff       	call   80491db <wrtwarning>
 804a11b:	b8 00 00 00 00       	mov    $0x0,%eax
 804a120:	e9 aa 01 00 00       	jmp    804a2cf <irealloc+0x26b>
 804a125:	c7 45 e4 00 10 00 00 	movl   $0x1000,-0x1c(%ebp)
 804a12c:	eb 07                	jmp    804a135 <irealloc+0xd1>
 804a12e:	81 45 e4 00 10 00 00 	addl   $0x1000,-0x1c(%ebp)
 804a135:	83 45 e0 04          	addl   $0x4,-0x20(%ebp)
 804a139:	8b 45 e0             	mov    -0x20(%ebp),%eax
 804a13c:	8b 00                	mov    (%eax),%eax
 804a13e:	83 f8 03             	cmp    $0x3,%eax
 804a141:	74 eb                	je     804a12e <irealloc+0xca>
 804a143:	8b 83 f4 00 00 00    	mov    0xf4(%ebx),%eax
 804a149:	85 c0                	test   %eax,%eax
 804a14b:	0f 85 14 01 00 00    	jne    804a265 <irealloc+0x201>
 804a151:	8b 45 0c             	mov    0xc(%ebp),%eax
 804a154:	3b 45 e4             	cmp    -0x1c(%ebp),%eax
 804a157:	0f 87 08 01 00 00    	ja     804a265 <irealloc+0x201>
 804a15d:	8b 45 e4             	mov    -0x1c(%ebp),%eax
 804a160:	2d 00 10 00 00       	sub    $0x1000,%eax
 804a165:	3b 45 0c             	cmp    0xc(%ebp),%eax
 804a168:	0f 83 f7 00 00 00    	jae    804a265 <irealloc+0x201>
 804a16e:	8b 45 08             	mov    0x8(%ebp),%eax
 804a171:	e9 59 01 00 00       	jmp    804a2cf <irealloc+0x26b>
 804a176:	8b 45 e0             	mov    -0x20(%ebp),%eax
 804a179:	8b 00                	mov    (%eax),%eax
 804a17b:	83 f8 03             	cmp    $0x3,%eax
 804a17e:	0f 86 cc 00 00 00    	jbe    804a250 <irealloc+0x1ec>
 804a184:	8b 45 e0             	mov    -0x20(%ebp),%eax
 804a187:	8b 00                	mov    (%eax),%eax
 804a189:	0f b7 40 08          	movzwl 0x8(%eax),%eax
 804a18d:	0f b7 c0             	movzwl %ax,%eax
 804a190:	83 e8 01             	sub    $0x1,%eax
 804a193:	89 c2                	mov    %eax,%edx
 804a195:	8b 45 08             	mov    0x8(%ebp),%eax
 804a198:	21 d0                	and    %edx,%eax
 804a19a:	85 c0                	test   %eax,%eax
 804a19c:	74 18                	je     804a1b6 <irealloc+0x152>
 804a19e:	8d 83 92 d9 ff ff    	lea    -0x266e(%ebx),%eax
 804a1a4:	89 04 24             	mov    %eax,(%esp)
 804a1a7:	e8 2f f0 ff ff       	call   80491db <wrtwarning>
 804a1ac:	b8 00 00 00 00       	mov    $0x0,%eax
 804a1b1:	e9 19 01 00 00       	jmp    804a2cf <irealloc+0x26b>
 804a1b6:	8b 45 08             	mov    0x8(%ebp),%eax
 804a1b9:	89 c2                	mov    %eax,%edx
 804a1bb:	81 e2 ff 0f 00 00    	and    $0xfff,%edx
 804a1c1:	8b 45 e0             	mov    -0x20(%ebp),%eax
 804a1c4:	8b 00                	mov    (%eax),%eax
 804a1c6:	0f b7 40 0a          	movzwl 0xa(%eax),%eax
 804a1ca:	0f b7 c0             	movzwl %ax,%eax
 804a1cd:	89 d6                	mov    %edx,%esi
 804a1cf:	89 c1                	mov    %eax,%ecx
 804a1d1:	d3 ee                	shr    %cl,%esi
 804a1d3:	89 f0                	mov    %esi,%eax
 804a1d5:	89 45 d8             	mov    %eax,-0x28(%ebp)
 804a1d8:	8b 45 e0             	mov    -0x20(%ebp),%eax
 804a1db:	8b 00                	mov    (%eax),%eax
 804a1dd:	8b 55 d8             	mov    -0x28(%ebp),%edx
 804a1e0:	c1 ea 05             	shr    $0x5,%edx
 804a1e3:	83 c2 04             	add    $0x4,%edx
 804a1e6:	8b 14 90             	mov    (%eax,%edx,4),%edx
 804a1e9:	8b 45 d8             	mov    -0x28(%ebp),%eax
 804a1ec:	83 e0 1f             	and    $0x1f,%eax
 804a1ef:	be 01 00 00 00       	mov    $0x1,%esi
 804a1f4:	89 f7                	mov    %esi,%edi
 804a1f6:	89 c1                	mov    %eax,%ecx
 804a1f8:	d3 e7                	shl    %cl,%edi
 804a1fa:	89 f8                	mov    %edi,%eax
 804a1fc:	21 d0                	and    %edx,%eax
 804a1fe:	85 c0                	test   %eax,%eax
 804a200:	74 18                	je     804a21a <irealloc+0x1b6>
 804a202:	8d 83 ae d9 ff ff    	lea    -0x2652(%ebx),%eax
 804a208:	89 04 24             	mov    %eax,(%esp)
 804a20b:	e8 cb ef ff ff       	call   80491db <wrtwarning>
 804a210:	b8 00 00 00 00       	mov    $0x0,%eax
 804a215:	e9 b5 00 00 00       	jmp    804a2cf <irealloc+0x26b>
 804a21a:	8b 45 e0             	mov    -0x20(%ebp),%eax
 804a21d:	8b 00                	mov    (%eax),%eax
 804a21f:	0f b7 40 08          	movzwl 0x8(%eax),%eax
 804a223:	0f b7 c0             	movzwl %ax,%eax
 804a226:	89 45 e4             	mov    %eax,-0x1c(%ebp)
 804a229:	8b 83 f4 00 00 00    	mov    0xf4(%ebx),%eax
 804a22f:	85 c0                	test   %eax,%eax
 804a231:	75 32                	jne    804a265 <irealloc+0x201>
 804a233:	8b 45 0c             	mov    0xc(%ebp),%eax
 804a236:	3b 45 e4             	cmp    -0x1c(%ebp),%eax
 804a239:	73 2a                	jae    804a265 <irealloc+0x201>
 804a23b:	8b 45 e4             	mov    -0x1c(%ebp),%eax
 804a23e:	d1 e8                	shr    %eax
 804a240:	3b 45 0c             	cmp    0xc(%ebp),%eax
 804a243:	72 06                	jb     804a24b <irealloc+0x1e7>
 804a245:	83 7d e4 10          	cmpl   $0x10,-0x1c(%ebp)
 804a249:	75 1a                	jne    804a265 <irealloc+0x201>
 804a24b:	8b 45 08             	mov    0x8(%ebp),%eax
 804a24e:	eb 7f                	jmp    804a2cf <irealloc+0x26b>
 804a250:	8d 83 c6 d9 ff ff    	lea    -0x263a(%ebx),%eax
 804a256:	89 04 24             	mov    %eax,(%esp)
 804a259:	e8 7d ef ff ff       	call   80491db <wrtwarning>
 804a25e:	b8 00 00 00 00       	mov    $0x0,%eax
 804a263:	eb 6a                	jmp    804a2cf <irealloc+0x26b>
 804a265:	8b 45 0c             	mov    0xc(%ebp),%eax
 804a268:	89 04 24             	mov    %eax,(%esp)
 804a26b:	e8 3e fd ff ff       	call   8049fae <imalloc>
 804a270:	89 45 d4             	mov    %eax,-0x2c(%ebp)
 804a273:	83 7d d4 00          	cmpl   $0x0,-0x2c(%ebp)
 804a277:	74 53                	je     804a2cc <irealloc+0x268>
 804a279:	83 7d 0c 00          	cmpl   $0x0,0xc(%ebp)
 804a27d:	74 42                	je     804a2c1 <irealloc+0x25d>
 804a27f:	83 7d e4 00          	cmpl   $0x0,-0x1c(%ebp)
 804a283:	74 3c                	je     804a2c1 <irealloc+0x25d>
 804a285:	8b 45 e4             	mov    -0x1c(%ebp),%eax
 804a288:	3b 45 0c             	cmp    0xc(%ebp),%eax
 804a28b:	73 1b                	jae    804a2a8 <irealloc+0x244>
 804a28d:	8b 45 e4             	mov    -0x1c(%ebp),%eax
 804a290:	89 44 24 08          	mov    %eax,0x8(%esp)
 804a294:	8b 45 08             	mov    0x8(%ebp),%eax
 804a297:	89 44 24 04          	mov    %eax,0x4(%esp)
 804a29b:	8b 45 d4             	mov    -0x2c(%ebp),%eax
 804a29e:	89 04 24             	mov    %eax,(%esp)
 804a2a1:	e8 34 10 00 00       	call   804b2da <memcpy>
 804a2a6:	eb 19                	jmp    804a2c1 <irealloc+0x25d>
 804a2a8:	8b 45 0c             	mov    0xc(%ebp),%eax
 804a2ab:	89 44 24 08          	mov    %eax,0x8(%esp)
 804a2af:	8b 45 08             	mov    0x8(%ebp),%eax
 804a2b2:	89 44 24 04          	mov    %eax,0x4(%esp)
 804a2b6:	8b 45 d4             	mov    -0x2c(%ebp),%eax
 804a2b9:	89 04 24             	mov    %eax,(%esp)
 804a2bc:	e8 19 10 00 00       	call   804b2da <memcpy>
 804a2c1:	8b 45 08             	mov    0x8(%ebp),%eax
 804a2c4:	89 04 24             	mov    %eax,(%esp)
 804a2c7:	e8 36 06 00 00       	call   804a902 <ifree>
 804a2cc:	8b 45 d4             	mov    -0x2c(%ebp),%eax
 804a2cf:	83 c4 3c             	add    $0x3c,%esp
 804a2d2:	5b                   	pop    %ebx
 804a2d3:	5e                   	pop    %esi
 804a2d4:	5f                   	pop    %edi
 804a2d5:	5d                   	pop    %ebp
 804a2d6:	c3                   	ret    

0804a2d7 <free_pages>:
 804a2d7:	55                   	push   %ebp
 804a2d8:	89 e5                	mov    %esp,%ebp
 804a2da:	53                   	push   %ebx
 804a2db:	83 ec 34             	sub    $0x34,%esp
 804a2de:	e8 28 ee ff ff       	call   804910b <__i686.get_pc_thunk.bx>
 804a2e3:	81 c3 65 43 00 00    	add    $0x4365,%ebx
 804a2e9:	c7 45 ec 00 00 00 00 	movl   $0x0,-0x14(%ebp)
 804a2f0:	83 7d 10 01          	cmpl   $0x1,0x10(%ebp)
 804a2f4:	75 13                	jne    804a309 <free_pages+0x32>
 804a2f6:	8d 83 de d9 ff ff    	lea    -0x2622(%ebx),%eax
 804a2fc:	89 04 24             	mov    %eax,(%esp)
 804a2ff:	e8 d7 ee ff ff       	call   80491db <wrtwarning>
 804a304:	e9 d8 03 00 00       	jmp    804a6e1 <free_pages+0x40a>
 804a309:	83 7d 10 02          	cmpl   $0x2,0x10(%ebp)
 804a30d:	74 13                	je     804a322 <free_pages+0x4b>
 804a30f:	8d 83 c6 d9 ff ff    	lea    -0x263a(%ebx),%eax
 804a315:	89 04 24             	mov    %eax,(%esp)
 804a318:	e8 be ee ff ff       	call   80491db <wrtwarning>
 804a31d:	e9 bf 03 00 00       	jmp    804a6e1 <free_pages+0x40a>
 804a322:	8b 45 08             	mov    0x8(%ebp),%eax
 804a325:	25 ff 0f 00 00       	and    $0xfff,%eax
 804a32a:	85 c0                	test   %eax,%eax
 804a32c:	74 13                	je     804a341 <free_pages+0x6a>
 804a32e:	8d 83 77 d9 ff ff    	lea    -0x2689(%ebx),%eax
 804a334:	89 04 24             	mov    %eax,(%esp)
 804a337:	e8 9f ee ff ff       	call   80491db <wrtwarning>
 804a33c:	e9 a0 03 00 00       	jmp    804a6e1 <free_pages+0x40a>
 804a341:	8b 83 d0 00 00 00    	mov    0xd0(%ebx),%eax
 804a347:	8b 55 0c             	mov    0xc(%ebp),%edx
 804a34a:	c1 e2 02             	shl    $0x2,%edx
 804a34d:	01 d0                	add    %edx,%eax
 804a34f:	c7 00 01 00 00 00    	movl   $0x1,(%eax)
 804a355:	c7 45 f4 01 00 00 00 	movl   $0x1,-0xc(%ebp)
 804a35c:	eb 1b                	jmp    804a379 <free_pages+0xa2>
 804a35e:	8b 93 d0 00 00 00    	mov    0xd0(%ebx),%edx
 804a364:	8b 45 0c             	mov    0xc(%ebp),%eax
 804a367:	03 45 f4             	add    -0xc(%ebp),%eax
 804a36a:	c1 e0 02             	shl    $0x2,%eax
 804a36d:	01 d0                	add    %edx,%eax
 804a36f:	c7 00 01 00 00 00    	movl   $0x1,(%eax)
 804a375:	83 45 f4 01          	addl   $0x1,-0xc(%ebp)
 804a379:	8b 93 d0 00 00 00    	mov    0xd0(%ebx),%edx
 804a37f:	8b 45 0c             	mov    0xc(%ebp),%eax
 804a382:	03 45 f4             	add    -0xc(%ebp),%eax
 804a385:	c1 e0 02             	shl    $0x2,%eax
 804a388:	01 d0                	add    %edx,%eax
 804a38a:	8b 00                	mov    (%eax),%eax
 804a38c:	83 f8 03             	cmp    $0x3,%eax
 804a38f:	74 cd                	je     804a35e <free_pages+0x87>
 804a391:	8b 45 f4             	mov    -0xc(%ebp),%eax
 804a394:	c1 e0 0c             	shl    $0xc,%eax
 804a397:	89 45 e8             	mov    %eax,-0x18(%ebp)
 804a39a:	8b 83 08 01 00 00    	mov    0x108(%ebx),%eax
 804a3a0:	85 c0                	test   %eax,%eax
 804a3a2:	74 1a                	je     804a3be <free_pages+0xe7>
 804a3a4:	8b 45 e8             	mov    -0x18(%ebp),%eax
 804a3a7:	89 44 24 08          	mov    %eax,0x8(%esp)
 804a3ab:	c7 44 24 04 d0 00 00 	movl   $0xd0,0x4(%esp)
 804a3b2:	00 
 804a3b3:	8b 45 08             	mov    0x8(%ebp),%eax
 804a3b6:	89 04 24             	mov    %eax,(%esp)
 804a3b9:	e8 6a 10 00 00       	call   804b428 <memset>
 804a3be:	8b 45 e8             	mov    -0x18(%ebp),%eax
 804a3c1:	8b 55 08             	mov    0x8(%ebp),%edx
 804a3c4:	01 d0                	add    %edx,%eax
 804a3c6:	89 45 e4             	mov    %eax,-0x1c(%ebp)
 804a3c9:	8b 83 10 01 00 00    	mov    0x110(%ebx),%eax
 804a3cf:	85 c0                	test   %eax,%eax
 804a3d1:	75 12                	jne    804a3e5 <free_pages+0x10e>
 804a3d3:	c7 04 24 14 00 00 00 	movl   $0x14,(%esp)
 804a3da:	e8 cf fb ff ff       	call   8049fae <imalloc>
 804a3df:	89 83 10 01 00 00    	mov    %eax,0x110(%ebx)
 804a3e5:	8b 83 10 01 00 00    	mov    0x110(%ebx),%eax
 804a3eb:	8b 55 08             	mov    0x8(%ebp),%edx
 804a3ee:	89 50 08             	mov    %edx,0x8(%eax)
 804a3f1:	8b 83 10 01 00 00    	mov    0x110(%ebx),%eax
 804a3f7:	8b 55 e4             	mov    -0x1c(%ebp),%edx
 804a3fa:	89 50 0c             	mov    %edx,0xc(%eax)
 804a3fd:	8b 83 10 01 00 00    	mov    0x110(%ebx),%eax
 804a403:	8b 55 e8             	mov    -0x18(%ebp),%edx
 804a406:	89 50 10             	mov    %edx,0x10(%eax)
 804a409:	8b 83 d8 00 00 00    	mov    0xd8(%ebx),%eax
 804a40f:	85 c0                	test   %eax,%eax
 804a411:	75 41                	jne    804a454 <free_pages+0x17d>
 804a413:	8b 83 10 01 00 00    	mov    0x110(%ebx),%eax
 804a419:	8b 93 d8 00 00 00    	mov    0xd8(%ebx),%edx
 804a41f:	89 10                	mov    %edx,(%eax)
 804a421:	8b 83 10 01 00 00    	mov    0x110(%ebx),%eax
 804a427:	8d 93 d8 00 00 00    	lea    0xd8(%ebx),%edx
 804a42d:	89 50 04             	mov    %edx,0x4(%eax)
 804a430:	8b 83 10 01 00 00    	mov    0x110(%ebx),%eax
 804a436:	89 83 d8 00 00 00    	mov    %eax,0xd8(%ebx)
 804a43c:	8b 83 10 01 00 00    	mov    0x110(%ebx),%eax
 804a442:	89 45 f0             	mov    %eax,-0x10(%ebp)
 804a445:	c7 83 10 01 00 00 00 	movl   $0x0,0x110(%ebx)
 804a44c:	00 00 00 
 804a44f:	e9 a2 01 00 00       	jmp    804a5f6 <free_pages+0x31f>
 804a454:	8b 45 e8             	mov    -0x18(%ebp),%eax
 804a457:	8b 55 08             	mov    0x8(%ebp),%edx
 804a45a:	01 d0                	add    %edx,%eax
 804a45c:	89 45 e4             	mov    %eax,-0x1c(%ebp)
 804a45f:	8b 83 d8 00 00 00    	mov    0xd8(%ebx),%eax
 804a465:	89 45 f0             	mov    %eax,-0x10(%ebp)
 804a468:	eb 08                	jmp    804a472 <free_pages+0x19b>
 804a46a:	8b 45 f0             	mov    -0x10(%ebp),%eax
 804a46d:	8b 00                	mov    (%eax),%eax
 804a46f:	89 45 f0             	mov    %eax,-0x10(%ebp)
 804a472:	8b 45 f0             	mov    -0x10(%ebp),%eax
 804a475:	8b 40 0c             	mov    0xc(%eax),%eax
 804a478:	3b 45 08             	cmp    0x8(%ebp),%eax
 804a47b:	73 09                	jae    804a486 <free_pages+0x1af>
 804a47d:	8b 45 f0             	mov    -0x10(%ebp),%eax
 804a480:	8b 00                	mov    (%eax),%eax
 804a482:	85 c0                	test   %eax,%eax
 804a484:	75 e4                	jne    804a46a <free_pages+0x193>
 804a486:	8b 45 f0             	mov    -0x10(%ebp),%eax
 804a489:	8b 40 08             	mov    0x8(%eax),%eax
 804a48c:	3b 45 e4             	cmp    -0x1c(%ebp),%eax
 804a48f:	76 4f                	jbe    804a4e0 <free_pages+0x209>
 804a491:	8b 83 10 01 00 00    	mov    0x110(%ebx),%eax
 804a497:	8b 55 f0             	mov    -0x10(%ebp),%edx
 804a49a:	89 10                	mov    %edx,(%eax)
 804a49c:	8b 83 10 01 00 00    	mov    0x110(%ebx),%eax
 804a4a2:	8b 55 f0             	mov    -0x10(%ebp),%edx
 804a4a5:	8b 52 04             	mov    0x4(%edx),%edx
 804a4a8:	89 50 04             	mov    %edx,0x4(%eax)
 804a4ab:	8b 93 10 01 00 00    	mov    0x110(%ebx),%edx
 804a4b1:	8b 45 f0             	mov    -0x10(%ebp),%eax
 804a4b4:	89 50 04             	mov    %edx,0x4(%eax)
 804a4b7:	8b 83 10 01 00 00    	mov    0x110(%ebx),%eax
 804a4bd:	8b 40 04             	mov    0x4(%eax),%eax
 804a4c0:	8b 93 10 01 00 00    	mov    0x110(%ebx),%edx
 804a4c6:	89 10                	mov    %edx,(%eax)
 804a4c8:	8b 83 10 01 00 00    	mov    0x110(%ebx),%eax
 804a4ce:	89 45 f0             	mov    %eax,-0x10(%ebp)
 804a4d1:	c7 83 10 01 00 00 00 	movl   $0x0,0x110(%ebx)
 804a4d8:	00 00 00 
 804a4db:	e9 16 01 00 00       	jmp    804a5f6 <free_pages+0x31f>
 804a4e0:	8b 45 f0             	mov    -0x10(%ebp),%eax
 804a4e3:	8b 40 0c             	mov    0xc(%eax),%eax
 804a4e6:	3b 45 08             	cmp    0x8(%ebp),%eax
 804a4e9:	0f 85 91 00 00 00    	jne    804a580 <free_pages+0x2a9>
 804a4ef:	8b 45 f0             	mov    -0x10(%ebp),%eax
 804a4f2:	8b 40 0c             	mov    0xc(%eax),%eax
 804a4f5:	89 c2                	mov    %eax,%edx
 804a4f7:	03 55 e8             	add    -0x18(%ebp),%edx
 804a4fa:	8b 45 f0             	mov    -0x10(%ebp),%eax
 804a4fd:	89 50 0c             	mov    %edx,0xc(%eax)
 804a500:	8b 45 f0             	mov    -0x10(%ebp),%eax
 804a503:	8b 40 10             	mov    0x10(%eax),%eax
 804a506:	89 c2                	mov    %eax,%edx
 804a508:	03 55 e8             	add    -0x18(%ebp),%edx
 804a50b:	8b 45 f0             	mov    -0x10(%ebp),%eax
 804a50e:	89 50 10             	mov    %edx,0x10(%eax)
 804a511:	8b 45 f0             	mov    -0x10(%ebp),%eax
 804a514:	8b 00                	mov    (%eax),%eax
 804a516:	85 c0                	test   %eax,%eax
 804a518:	0f 84 d8 00 00 00    	je     804a5f6 <free_pages+0x31f>
 804a51e:	8b 45 f0             	mov    -0x10(%ebp),%eax
 804a521:	8b 50 0c             	mov    0xc(%eax),%edx
 804a524:	8b 45 f0             	mov    -0x10(%ebp),%eax
 804a527:	8b 00                	mov    (%eax),%eax
 804a529:	8b 40 08             	mov    0x8(%eax),%eax
 804a52c:	39 c2                	cmp    %eax,%edx
 804a52e:	0f 85 c2 00 00 00    	jne    804a5f6 <free_pages+0x31f>
 804a534:	8b 45 f0             	mov    -0x10(%ebp),%eax
 804a537:	8b 00                	mov    (%eax),%eax
 804a539:	89 45 ec             	mov    %eax,-0x14(%ebp)
 804a53c:	8b 45 ec             	mov    -0x14(%ebp),%eax
 804a53f:	8b 50 0c             	mov    0xc(%eax),%edx
 804a542:	8b 45 f0             	mov    -0x10(%ebp),%eax
 804a545:	89 50 0c             	mov    %edx,0xc(%eax)
 804a548:	8b 45 f0             	mov    -0x10(%ebp),%eax
 804a54b:	8b 50 10             	mov    0x10(%eax),%edx
 804a54e:	8b 45 ec             	mov    -0x14(%ebp),%eax
 804a551:	8b 40 10             	mov    0x10(%eax),%eax
 804a554:	01 c2                	add    %eax,%edx
 804a556:	8b 45 f0             	mov    -0x10(%ebp),%eax
 804a559:	89 50 10             	mov    %edx,0x10(%eax)
 804a55c:	8b 45 ec             	mov    -0x14(%ebp),%eax
 804a55f:	8b 10                	mov    (%eax),%edx
 804a561:	8b 45 f0             	mov    -0x10(%ebp),%eax
 804a564:	89 10                	mov    %edx,(%eax)
 804a566:	8b 45 f0             	mov    -0x10(%ebp),%eax
 804a569:	8b 00                	mov    (%eax),%eax
 804a56b:	85 c0                	test   %eax,%eax
 804a56d:	0f 84 83 00 00 00    	je     804a5f6 <free_pages+0x31f>
 804a573:	8b 45 f0             	mov    -0x10(%ebp),%eax
 804a576:	8b 00                	mov    (%eax),%eax
 804a578:	8b 55 f0             	mov    -0x10(%ebp),%edx
 804a57b:	89 50 04             	mov    %edx,0x4(%eax)
 804a57e:	eb 76                	jmp    804a5f6 <free_pages+0x31f>
 804a580:	8b 45 f0             	mov    -0x10(%ebp),%eax
 804a583:	8b 40 08             	mov    0x8(%eax),%eax
 804a586:	3b 45 e4             	cmp    -0x1c(%ebp),%eax
 804a589:	75 1c                	jne    804a5a7 <free_pages+0x2d0>
 804a58b:	8b 45 f0             	mov    -0x10(%ebp),%eax
 804a58e:	8b 40 10             	mov    0x10(%eax),%eax
 804a591:	89 c2                	mov    %eax,%edx
 804a593:	03 55 e8             	add    -0x18(%ebp),%edx
 804a596:	8b 45 f0             	mov    -0x10(%ebp),%eax
 804a599:	89 50 10             	mov    %edx,0x10(%eax)
 804a59c:	8b 45 f0             	mov    -0x10(%ebp),%eax
 804a59f:	8b 55 08             	mov    0x8(%ebp),%edx
 804a5a2:	89 50 08             	mov    %edx,0x8(%eax)
 804a5a5:	eb 4f                	jmp    804a5f6 <free_pages+0x31f>
 804a5a7:	8b 45 f0             	mov    -0x10(%ebp),%eax
 804a5aa:	8b 00                	mov    (%eax),%eax
 804a5ac:	85 c0                	test   %eax,%eax
 804a5ae:	75 38                	jne    804a5e8 <free_pages+0x311>
 804a5b0:	8b 83 10 01 00 00    	mov    0x110(%ebx),%eax
 804a5b6:	c7 00 00 00 00 00    	movl   $0x0,(%eax)
 804a5bc:	8b 83 10 01 00 00    	mov    0x110(%ebx),%eax
 804a5c2:	8b 55 f0             	mov    -0x10(%ebp),%edx
 804a5c5:	89 50 04             	mov    %edx,0x4(%eax)
 804a5c8:	8b 93 10 01 00 00    	mov    0x110(%ebx),%edx
 804a5ce:	8b 45 f0             	mov    -0x10(%ebp),%eax
 804a5d1:	89 10                	mov    %edx,(%eax)
 804a5d3:	8b 83 10 01 00 00    	mov    0x110(%ebx),%eax
 804a5d9:	89 45 f0             	mov    %eax,-0x10(%ebp)
 804a5dc:	c7 83 10 01 00 00 00 	movl   $0x0,0x110(%ebx)
 804a5e3:	00 00 00 
 804a5e6:	eb 0e                	jmp    804a5f6 <free_pages+0x31f>
 804a5e8:	8d 83 f5 d9 ff ff    	lea    -0x260b(%ebx),%eax
 804a5ee:	89 04 24             	mov    %eax,(%esp)
 804a5f1:	e8 1a eb ff ff       	call   8049110 <wrterror>
 804a5f6:	8b 45 f0             	mov    -0x10(%ebp),%eax
 804a5f9:	8b 00                	mov    (%eax),%eax
 804a5fb:	85 c0                	test   %eax,%eax
 804a5fd:	0f 85 cd 00 00 00    	jne    804a6d0 <free_pages+0x3f9>
 804a603:	8b 45 f0             	mov    -0x10(%ebp),%eax
 804a606:	8b 50 10             	mov    0x10(%eax),%edx
 804a609:	8b 83 0c 00 00 00    	mov    0xc(%ebx),%eax
 804a60f:	39 c2                	cmp    %eax,%edx
 804a611:	0f 86 b9 00 00 00    	jbe    804a6d0 <free_pages+0x3f9>
 804a617:	8b 45 f0             	mov    -0x10(%ebp),%eax
 804a61a:	8b 50 0c             	mov    0xc(%eax),%edx
 804a61d:	8b 83 0c 01 00 00    	mov    0x10c(%ebx),%eax
 804a623:	39 c2                	cmp    %eax,%edx
 804a625:	0f 85 a5 00 00 00    	jne    804a6d0 <free_pages+0x3f9>
 804a62b:	c7 04 24 00 00 00 00 	movl   $0x0,(%esp)
 804a632:	e8 c9 db ff ff       	call   8048200 <sbrk>
 804a637:	8b 93 0c 01 00 00    	mov    0x10c(%ebx),%edx
 804a63d:	39 d0                	cmp    %edx,%eax
 804a63f:	0f 85 8b 00 00 00    	jne    804a6d0 <free_pages+0x3f9>
 804a645:	8b 45 f0             	mov    -0x10(%ebp),%eax
 804a648:	8b 50 08             	mov    0x8(%eax),%edx
 804a64b:	8b 83 0c 00 00 00    	mov    0xc(%ebx),%eax
 804a651:	01 c2                	add    %eax,%edx
 804a653:	8b 45 f0             	mov    -0x10(%ebp),%eax
 804a656:	89 50 0c             	mov    %edx,0xc(%eax)
 804a659:	8b 93 0c 00 00 00    	mov    0xc(%ebx),%edx
 804a65f:	8b 45 f0             	mov    -0x10(%ebp),%eax
 804a662:	89 50 10             	mov    %edx,0x10(%eax)
 804a665:	8b 45 f0             	mov    -0x10(%ebp),%eax
 804a668:	8b 40 0c             	mov    0xc(%eax),%eax
 804a66b:	89 04 24             	mov    %eax,(%esp)
 804a66e:	e8 5d dc ff ff       	call   80482d0 <brk>
 804a673:	8b 45 f0             	mov    -0x10(%ebp),%eax
 804a676:	8b 40 0c             	mov    0xc(%eax),%eax
 804a679:	89 83 0c 01 00 00    	mov    %eax,0x10c(%ebx)
 804a67f:	8b 45 f0             	mov    -0x10(%ebp),%eax
 804a682:	8b 40 0c             	mov    0xc(%eax),%eax
 804a685:	89 c2                	mov    %eax,%edx
 804a687:	c1 ea 0c             	shr    $0xc,%edx
 804a68a:	8b 83 c8 00 00 00    	mov    0xc8(%ebx),%eax
 804a690:	89 d1                	mov    %edx,%ecx
 804a692:	29 c1                	sub    %eax,%ecx
 804a694:	89 c8                	mov    %ecx,%eax
 804a696:	89 45 0c             	mov    %eax,0xc(%ebp)
 804a699:	8b 45 0c             	mov    0xc(%ebp),%eax
 804a69c:	83 e8 01             	sub    $0x1,%eax
 804a69f:	89 83 cc 00 00 00    	mov    %eax,0xcc(%ebx)
 804a6a5:	8b 45 0c             	mov    0xc(%ebp),%eax
 804a6a8:	89 45 f4             	mov    %eax,-0xc(%ebp)
 804a6ab:	eb 18                	jmp    804a6c5 <free_pages+0x3ee>
 804a6ad:	8b 83 d0 00 00 00    	mov    0xd0(%ebx),%eax
 804a6b3:	8b 55 f4             	mov    -0xc(%ebp),%edx
 804a6b6:	c1 e2 02             	shl    $0x2,%edx
 804a6b9:	01 d0                	add    %edx,%eax
 804a6bb:	c7 00 00 00 00 00    	movl   $0x0,(%eax)
 804a6c1:	83 45 f4 01          	addl   $0x1,-0xc(%ebp)
 804a6c5:	8b 83 cc 00 00 00    	mov    0xcc(%ebx),%eax
 804a6cb:	39 45 f4             	cmp    %eax,-0xc(%ebp)
 804a6ce:	76 dd                	jbe    804a6ad <free_pages+0x3d6>
 804a6d0:	83 7d ec 00          	cmpl   $0x0,-0x14(%ebp)
 804a6d4:	74 0b                	je     804a6e1 <free_pages+0x40a>
 804a6d6:	8b 45 ec             	mov    -0x14(%ebp),%eax
 804a6d9:	89 04 24             	mov    %eax,(%esp)
 804a6dc:	e8 21 02 00 00       	call   804a902 <ifree>
 804a6e1:	83 c4 34             	add    $0x34,%esp
 804a6e4:	5b                   	pop    %ebx
 804a6e5:	5d                   	pop    %ebp
 804a6e6:	c3                   	ret    

0804a6e7 <free_bytes>:
 804a6e7:	55                   	push   %ebp
 804a6e8:	89 e5                	mov    %esp,%ebp
 804a6ea:	57                   	push   %edi
 804a6eb:	56                   	push   %esi
 804a6ec:	53                   	push   %ebx
 804a6ed:	83 ec 3c             	sub    $0x3c,%esp
 804a6f0:	e8 16 ea ff ff       	call   804910b <__i686.get_pc_thunk.bx>
 804a6f5:	81 c3 53 3f 00 00    	add    $0x3f53,%ebx
 804a6fb:	8b 45 08             	mov    0x8(%ebp),%eax
 804a6fe:	89 c2                	mov    %eax,%edx
 804a700:	81 e2 ff 0f 00 00    	and    $0xfff,%edx
 804a706:	8b 45 10             	mov    0x10(%ebp),%eax
 804a709:	0f b7 40 0a          	movzwl 0xa(%eax),%eax
 804a70d:	0f b7 c0             	movzwl %ax,%eax
 804a710:	89 d6                	mov    %edx,%esi
 804a712:	89 c1                	mov    %eax,%ecx
 804a714:	d3 ee                	shr    %cl,%esi
 804a716:	89 f0                	mov    %esi,%eax
 804a718:	89 45 e0             	mov    %eax,-0x20(%ebp)
 804a71b:	8b 45 10             	mov    0x10(%ebp),%eax
 804a71e:	0f b7 40 08          	movzwl 0x8(%eax),%eax
 804a722:	0f b7 c0             	movzwl %ax,%eax
 804a725:	83 e8 01             	sub    $0x1,%eax
 804a728:	89 c2                	mov    %eax,%edx
 804a72a:	8b 45 08             	mov    0x8(%ebp),%eax
 804a72d:	21 d0                	and    %edx,%eax
 804a72f:	85 c0                	test   %eax,%eax
 804a731:	74 13                	je     804a746 <free_bytes+0x5f>
 804a733:	8d 83 92 d9 ff ff    	lea    -0x266e(%ebx),%eax
 804a739:	89 04 24             	mov    %eax,(%esp)
 804a73c:	e8 9a ea ff ff       	call   80491db <wrtwarning>
 804a741:	e9 b4 01 00 00       	jmp    804a8fa <free_bytes+0x213>
 804a746:	8b 45 e0             	mov    -0x20(%ebp),%eax
 804a749:	89 c2                	mov    %eax,%edx
 804a74b:	c1 ea 05             	shr    $0x5,%edx
 804a74e:	8b 45 10             	mov    0x10(%ebp),%eax
 804a751:	83 c2 04             	add    $0x4,%edx
 804a754:	8b 14 90             	mov    (%eax,%edx,4),%edx
 804a757:	8b 45 e0             	mov    -0x20(%ebp),%eax
 804a75a:	83 e0 1f             	and    $0x1f,%eax
 804a75d:	be 01 00 00 00       	mov    $0x1,%esi
 804a762:	89 f7                	mov    %esi,%edi
 804a764:	89 c1                	mov    %eax,%ecx
 804a766:	d3 e7                	shl    %cl,%edi
 804a768:	89 f8                	mov    %edi,%eax
 804a76a:	21 d0                	and    %edx,%eax
 804a76c:	85 c0                	test   %eax,%eax
 804a76e:	74 13                	je     804a783 <free_bytes+0x9c>
 804a770:	8d 83 ae d9 ff ff    	lea    -0x2652(%ebx),%eax
 804a776:	89 04 24             	mov    %eax,(%esp)
 804a779:	e8 5d ea ff ff       	call   80491db <wrtwarning>
 804a77e:	e9 77 01 00 00       	jmp    804a8fa <free_bytes+0x213>
 804a783:	8b 83 08 01 00 00    	mov    0x108(%ebx),%eax
 804a789:	85 c0                	test   %eax,%eax
 804a78b:	74 21                	je     804a7ae <free_bytes+0xc7>
 804a78d:	8b 45 10             	mov    0x10(%ebp),%eax
 804a790:	0f b7 40 08          	movzwl 0x8(%eax),%eax
 804a794:	0f b7 c0             	movzwl %ax,%eax
 804a797:	89 44 24 08          	mov    %eax,0x8(%esp)
 804a79b:	c7 44 24 04 d0 00 00 	movl   $0xd0,0x4(%esp)
 804a7a2:	00 
 804a7a3:	8b 45 08             	mov    0x8(%ebp),%eax
 804a7a6:	89 04 24             	mov    %eax,(%esp)
 804a7a9:	e8 7a 0c 00 00       	call   804b428 <memset>
 804a7ae:	8b 45 e0             	mov    -0x20(%ebp),%eax
 804a7b1:	c1 e8 05             	shr    $0x5,%eax
 804a7b4:	8b 55 10             	mov    0x10(%ebp),%edx
 804a7b7:	8d 48 04             	lea    0x4(%eax),%ecx
 804a7ba:	8b 34 8a             	mov    (%edx,%ecx,4),%esi
 804a7bd:	8b 55 e0             	mov    -0x20(%ebp),%edx
 804a7c0:	83 e2 1f             	and    $0x1f,%edx
 804a7c3:	c7 45 d4 01 00 00 00 	movl   $0x1,-0x2c(%ebp)
 804a7ca:	8b 7d d4             	mov    -0x2c(%ebp),%edi
 804a7cd:	89 d1                	mov    %edx,%ecx
 804a7cf:	d3 e7                	shl    %cl,%edi
 804a7d1:	89 fa                	mov    %edi,%edx
 804a7d3:	89 f1                	mov    %esi,%ecx
 804a7d5:	09 d1                	or     %edx,%ecx
 804a7d7:	8b 55 10             	mov    0x10(%ebp),%edx
 804a7da:	83 c0 04             	add    $0x4,%eax
 804a7dd:	89 0c 82             	mov    %ecx,(%edx,%eax,4)
 804a7e0:	8b 45 10             	mov    0x10(%ebp),%eax
 804a7e3:	0f b7 40 0c          	movzwl 0xc(%eax),%eax
 804a7e7:	8d 50 01             	lea    0x1(%eax),%edx
 804a7ea:	8b 45 10             	mov    0x10(%ebp),%eax
 804a7ed:	66 89 50 0c          	mov    %dx,0xc(%eax)
 804a7f1:	8b 93 d0 00 00 00    	mov    0xd0(%ebx),%edx
 804a7f7:	8b 45 10             	mov    0x10(%ebp),%eax
 804a7fa:	0f b7 40 0a          	movzwl 0xa(%eax),%eax
 804a7fe:	0f b7 c0             	movzwl %ax,%eax
 804a801:	c1 e0 02             	shl    $0x2,%eax
 804a804:	01 d0                	add    %edx,%eax
 804a806:	89 45 e4             	mov    %eax,-0x1c(%ebp)
 804a809:	8b 45 10             	mov    0x10(%ebp),%eax
 804a80c:	0f b7 40 0c          	movzwl 0xc(%eax),%eax
 804a810:	66 83 f8 01          	cmp    $0x1,%ax
 804a814:	75 61                	jne    804a877 <free_bytes+0x190>
 804a816:	8b 93 d0 00 00 00    	mov    0xd0(%ebx),%edx
 804a81c:	8b 45 10             	mov    0x10(%ebp),%eax
 804a81f:	0f b7 40 0a          	movzwl 0xa(%eax),%eax
 804a823:	0f b7 c0             	movzwl %ax,%eax
 804a826:	c1 e0 02             	shl    $0x2,%eax
 804a829:	01 d0                	add    %edx,%eax
 804a82b:	89 45 e4             	mov    %eax,-0x1c(%ebp)
 804a82e:	eb 08                	jmp    804a838 <free_bytes+0x151>
 804a830:	8b 45 e4             	mov    -0x1c(%ebp),%eax
 804a833:	8b 00                	mov    (%eax),%eax
 804a835:	89 45 e4             	mov    %eax,-0x1c(%ebp)
 804a838:	8b 45 e4             	mov    -0x1c(%ebp),%eax
 804a83b:	8b 00                	mov    (%eax),%eax
 804a83d:	85 c0                	test   %eax,%eax
 804a83f:	74 1f                	je     804a860 <free_bytes+0x179>
 804a841:	8b 45 e4             	mov    -0x1c(%ebp),%eax
 804a844:	8b 00                	mov    (%eax),%eax
 804a846:	8b 00                	mov    (%eax),%eax
 804a848:	85 c0                	test   %eax,%eax
 804a84a:	74 14                	je     804a860 <free_bytes+0x179>
 804a84c:	8b 45 e4             	mov    -0x1c(%ebp),%eax
 804a84f:	8b 00                	mov    (%eax),%eax
 804a851:	8b 00                	mov    (%eax),%eax
 804a853:	8b 50 04             	mov    0x4(%eax),%edx
 804a856:	8b 45 10             	mov    0x10(%ebp),%eax
 804a859:	8b 40 04             	mov    0x4(%eax),%eax
 804a85c:	39 c2                	cmp    %eax,%edx
 804a85e:	72 d0                	jb     804a830 <free_bytes+0x149>
 804a860:	8b 45 e4             	mov    -0x1c(%ebp),%eax
 804a863:	8b 10                	mov    (%eax),%edx
 804a865:	8b 45 10             	mov    0x10(%ebp),%eax
 804a868:	89 10                	mov    %edx,(%eax)
 804a86a:	8b 45 e4             	mov    -0x1c(%ebp),%eax
 804a86d:	8b 55 10             	mov    0x10(%ebp),%edx
 804a870:	89 10                	mov    %edx,(%eax)
 804a872:	e9 83 00 00 00       	jmp    804a8fa <free_bytes+0x213>
 804a877:	8b 45 10             	mov    0x10(%ebp),%eax
 804a87a:	0f b7 50 0c          	movzwl 0xc(%eax),%edx
 804a87e:	8b 45 10             	mov    0x10(%ebp),%eax
 804a881:	0f b7 40 0e          	movzwl 0xe(%eax),%eax
 804a885:	66 39 c2             	cmp    %ax,%dx
 804a888:	74 0c                	je     804a896 <free_bytes+0x1af>
 804a88a:	eb 6e                	jmp    804a8fa <free_bytes+0x213>
 804a88c:	8b 45 e4             	mov    -0x1c(%ebp),%eax
 804a88f:	8b 00                	mov    (%eax),%eax
 804a891:	89 45 e4             	mov    %eax,-0x1c(%ebp)
 804a894:	eb 01                	jmp    804a897 <free_bytes+0x1b0>
 804a896:	90                   	nop
 804a897:	8b 45 e4             	mov    -0x1c(%ebp),%eax
 804a89a:	8b 00                	mov    (%eax),%eax
 804a89c:	3b 45 10             	cmp    0x10(%ebp),%eax
 804a89f:	75 eb                	jne    804a88c <free_bytes+0x1a5>
 804a8a1:	8b 45 10             	mov    0x10(%ebp),%eax
 804a8a4:	8b 10                	mov    (%eax),%edx
 804a8a6:	8b 45 e4             	mov    -0x1c(%ebp),%eax
 804a8a9:	89 10                	mov    %edx,(%eax)
 804a8ab:	8b 93 d0 00 00 00    	mov    0xd0(%ebx),%edx
 804a8b1:	8b 45 10             	mov    0x10(%ebp),%eax
 804a8b4:	8b 40 04             	mov    0x4(%eax),%eax
 804a8b7:	89 c1                	mov    %eax,%ecx
 804a8b9:	c1 e9 0c             	shr    $0xc,%ecx
 804a8bc:	8b 83 c8 00 00 00    	mov    0xc8(%ebx),%eax
 804a8c2:	89 ce                	mov    %ecx,%esi
 804a8c4:	29 c6                	sub    %eax,%esi
 804a8c6:	89 f0                	mov    %esi,%eax
 804a8c8:	c1 e0 02             	shl    $0x2,%eax
 804a8cb:	01 d0                	add    %edx,%eax
 804a8cd:	c7 00 02 00 00 00    	movl   $0x2,(%eax)
 804a8d3:	8b 45 10             	mov    0x10(%ebp),%eax
 804a8d6:	8b 40 04             	mov    0x4(%eax),%eax
 804a8d9:	89 45 dc             	mov    %eax,-0x24(%ebp)
 804a8dc:	8b 45 dc             	mov    -0x24(%ebp),%eax
 804a8df:	3b 45 10             	cmp    0x10(%ebp),%eax
 804a8e2:	74 0b                	je     804a8ef <free_bytes+0x208>
 804a8e4:	8b 45 10             	mov    0x10(%ebp),%eax
 804a8e7:	89 04 24             	mov    %eax,(%esp)
 804a8ea:	e8 13 00 00 00       	call   804a902 <ifree>
 804a8ef:	8b 45 dc             	mov    -0x24(%ebp),%eax
 804a8f2:	89 04 24             	mov    %eax,(%esp)
 804a8f5:	e8 08 00 00 00       	call   804a902 <ifree>
 804a8fa:	83 c4 3c             	add    $0x3c,%esp
 804a8fd:	5b                   	pop    %ebx
 804a8fe:	5e                   	pop    %esi
 804a8ff:	5f                   	pop    %edi
 804a900:	5d                   	pop    %ebp
 804a901:	c3                   	ret    

0804a902 <ifree>:
 804a902:	55                   	push   %ebp
 804a903:	89 e5                	mov    %esp,%ebp
 804a905:	57                   	push   %edi
 804a906:	56                   	push   %esi
 804a907:	53                   	push   %ebx
 804a908:	83 ec 6c             	sub    $0x6c,%esp
 804a90b:	e8 fb e7 ff ff       	call   804910b <__i686.get_pc_thunk.bx>
 804a910:	81 c3 38 3d 00 00    	add    $0x3d38,%ebx
 804a916:	83 7d 08 00          	cmpl   $0x0,0x8(%ebp)
 804a91a:	0f 84 b9 06 00 00    	je     804afd9 <ifree+0x6d7>
 804a920:	8b 83 c0 00 00 00    	mov    0xc0(%ebx),%eax
 804a926:	85 c0                	test   %eax,%eax
 804a928:	75 13                	jne    804a93d <ifree+0x3b>
 804a92a:	8d 83 10 da ff ff    	lea    -0x25f0(%ebx),%eax
 804a930:	89 04 24             	mov    %eax,(%esp)
 804a933:	e8 a3 e8 ff ff       	call   80491db <wrtwarning>
 804a938:	e9 a3 06 00 00       	jmp    804afe0 <ifree+0x6de>
 804a93d:	8b 83 f0 00 00 00    	mov    0xf0(%ebx),%eax
 804a943:	85 c0                	test   %eax,%eax
 804a945:	0f 85 91 06 00 00    	jne    804afdc <ifree+0x6da>
 804a94b:	8b 45 08             	mov    0x8(%ebp),%eax
 804a94e:	89 c2                	mov    %eax,%edx
 804a950:	c1 ea 0c             	shr    $0xc,%edx
 804a953:	8b 83 c8 00 00 00    	mov    0xc8(%ebx),%eax
 804a959:	89 d1                	mov    %edx,%ecx
 804a95b:	29 c1                	sub    %eax,%ecx
 804a95d:	89 c8                	mov    %ecx,%eax
 804a95f:	89 45 e4             	mov    %eax,-0x1c(%ebp)
 804a962:	83 7d e4 0b          	cmpl   $0xb,-0x1c(%ebp)
 804a966:	77 13                	ja     804a97b <ifree+0x79>
 804a968:	8d 83 28 d9 ff ff    	lea    -0x26d8(%ebx),%eax
 804a96e:	89 04 24             	mov    %eax,(%esp)
 804a971:	e8 65 e8 ff ff       	call   80491db <wrtwarning>
 804a976:	e9 65 06 00 00       	jmp    804afe0 <ifree+0x6de>
 804a97b:	8b 83 cc 00 00 00    	mov    0xcc(%ebx),%eax
 804a981:	39 45 e4             	cmp    %eax,-0x1c(%ebp)
 804a984:	76 13                	jbe    804a999 <ifree+0x97>
 804a986:	8d 83 50 d9 ff ff    	lea    -0x26b0(%ebx),%eax
 804a98c:	89 04 24             	mov    %eax,(%esp)
 804a98f:	e8 47 e8 ff ff       	call   80491db <wrtwarning>
 804a994:	e9 47 06 00 00       	jmp    804afe0 <ifree+0x6de>
 804a999:	8b 83 d0 00 00 00    	mov    0xd0(%ebx),%eax
 804a99f:	8b 55 e4             	mov    -0x1c(%ebp),%edx
 804a9a2:	c1 e2 02             	shl    $0x2,%edx
 804a9a5:	01 d0                	add    %edx,%eax
 804a9a7:	8b 00                	mov    (%eax),%eax
 804a9a9:	89 45 e0             	mov    %eax,-0x20(%ebp)
 804a9ac:	83 7d e0 03          	cmpl   $0x3,-0x20(%ebp)
 804a9b0:	0f 87 13 04 00 00    	ja     804adc9 <ifree+0x4c7>
 804a9b6:	8b 45 e4             	mov    -0x1c(%ebp),%eax
 804a9b9:	8b 55 08             	mov    0x8(%ebp),%edx
 804a9bc:	89 55 dc             	mov    %edx,-0x24(%ebp)
 804a9bf:	89 45 d8             	mov    %eax,-0x28(%ebp)
 804a9c2:	8b 45 e0             	mov    -0x20(%ebp),%eax
 804a9c5:	89 45 d4             	mov    %eax,-0x2c(%ebp)
 804a9c8:	c7 45 d0 00 00 00 00 	movl   $0x0,-0x30(%ebp)
 804a9cf:	83 7d d4 01          	cmpl   $0x1,-0x2c(%ebp)
 804a9d3:	75 13                	jne    804a9e8 <ifree+0xe6>
 804a9d5:	8d 83 de d9 ff ff    	lea    -0x2622(%ebx),%eax
 804a9db:	89 04 24             	mov    %eax,(%esp)
 804a9de:	e8 f8 e7 ff ff       	call   80491db <wrtwarning>
 804a9e3:	e9 f7 05 00 00       	jmp    804afdf <ifree+0x6dd>
 804a9e8:	83 7d d4 02          	cmpl   $0x2,-0x2c(%ebp)
 804a9ec:	74 13                	je     804aa01 <ifree+0xff>
 804a9ee:	8d 83 c6 d9 ff ff    	lea    -0x263a(%ebx),%eax
 804a9f4:	89 04 24             	mov    %eax,(%esp)
 804a9f7:	e8 df e7 ff ff       	call   80491db <wrtwarning>
 804a9fc:	e9 de 05 00 00       	jmp    804afdf <ifree+0x6dd>
 804aa01:	8b 45 dc             	mov    -0x24(%ebp),%eax
 804aa04:	25 ff 0f 00 00       	and    $0xfff,%eax
 804aa09:	85 c0                	test   %eax,%eax
 804aa0b:	74 13                	je     804aa20 <ifree+0x11e>
 804aa0d:	8d 83 77 d9 ff ff    	lea    -0x2689(%ebx),%eax
 804aa13:	89 04 24             	mov    %eax,(%esp)
 804aa16:	e8 c0 e7 ff ff       	call   80491db <wrtwarning>
 804aa1b:	e9 bf 05 00 00       	jmp    804afdf <ifree+0x6dd>
 804aa20:	8b 83 d0 00 00 00    	mov    0xd0(%ebx),%eax
 804aa26:	8b 55 d8             	mov    -0x28(%ebp),%edx
 804aa29:	c1 e2 02             	shl    $0x2,%edx
 804aa2c:	01 d0                	add    %edx,%eax
 804aa2e:	c7 00 01 00 00 00    	movl   $0x1,(%eax)
 804aa34:	c7 45 cc 01 00 00 00 	movl   $0x1,-0x34(%ebp)
 804aa3b:	eb 1b                	jmp    804aa58 <ifree+0x156>
 804aa3d:	8b 93 d0 00 00 00    	mov    0xd0(%ebx),%edx
 804aa43:	8b 45 d8             	mov    -0x28(%ebp),%eax
 804aa46:	03 45 cc             	add    -0x34(%ebp),%eax
 804aa49:	c1 e0 02             	shl    $0x2,%eax
 804aa4c:	01 d0                	add    %edx,%eax
 804aa4e:	c7 00 01 00 00 00    	movl   $0x1,(%eax)
 804aa54:	83 45 cc 01          	addl   $0x1,-0x34(%ebp)
 804aa58:	8b 93 d0 00 00 00    	mov    0xd0(%ebx),%edx
 804aa5e:	8b 45 d8             	mov    -0x28(%ebp),%eax
 804aa61:	03 45 cc             	add    -0x34(%ebp),%eax
 804aa64:	c1 e0 02             	shl    $0x2,%eax
 804aa67:	01 d0                	add    %edx,%eax
 804aa69:	8b 00                	mov    (%eax),%eax
 804aa6b:	83 f8 03             	cmp    $0x3,%eax
 804aa6e:	74 cd                	je     804aa3d <ifree+0x13b>
 804aa70:	8b 45 cc             	mov    -0x34(%ebp),%eax
 804aa73:	c1 e0 0c             	shl    $0xc,%eax
 804aa76:	89 45 c8             	mov    %eax,-0x38(%ebp)
 804aa79:	8b 83 08 01 00 00    	mov    0x108(%ebx),%eax
 804aa7f:	85 c0                	test   %eax,%eax
 804aa81:	74 1a                	je     804aa9d <ifree+0x19b>
 804aa83:	8b 45 c8             	mov    -0x38(%ebp),%eax
 804aa86:	89 44 24 08          	mov    %eax,0x8(%esp)
 804aa8a:	c7 44 24 04 d0 00 00 	movl   $0xd0,0x4(%esp)
 804aa91:	00 
 804aa92:	8b 45 dc             	mov    -0x24(%ebp),%eax
 804aa95:	89 04 24             	mov    %eax,(%esp)
 804aa98:	e8 8b 09 00 00       	call   804b428 <memset>
 804aa9d:	8b 45 c8             	mov    -0x38(%ebp),%eax
 804aaa0:	8b 55 dc             	mov    -0x24(%ebp),%edx
 804aaa3:	01 d0                	add    %edx,%eax
 804aaa5:	89 45 c4             	mov    %eax,-0x3c(%ebp)
 804aaa8:	8b 83 10 01 00 00    	mov    0x110(%ebx),%eax
 804aaae:	85 c0                	test   %eax,%eax
 804aab0:	75 12                	jne    804aac4 <ifree+0x1c2>
 804aab2:	c7 04 24 14 00 00 00 	movl   $0x14,(%esp)
 804aab9:	e8 f0 f4 ff ff       	call   8049fae <imalloc>
 804aabe:	89 83 10 01 00 00    	mov    %eax,0x110(%ebx)
 804aac4:	8b 83 10 01 00 00    	mov    0x110(%ebx),%eax
 804aaca:	8b 55 dc             	mov    -0x24(%ebp),%edx
 804aacd:	89 50 08             	mov    %edx,0x8(%eax)
 804aad0:	8b 83 10 01 00 00    	mov    0x110(%ebx),%eax
 804aad6:	8b 55 c4             	mov    -0x3c(%ebp),%edx
 804aad9:	89 50 0c             	mov    %edx,0xc(%eax)
 804aadc:	8b 83 10 01 00 00    	mov    0x110(%ebx),%eax
 804aae2:	8b 55 c8             	mov    -0x38(%ebp),%edx
 804aae5:	89 50 10             	mov    %edx,0x10(%eax)
 804aae8:	8b 83 d8 00 00 00    	mov    0xd8(%ebx),%eax
 804aaee:	85 c0                	test   %eax,%eax
 804aaf0:	75 41                	jne    804ab33 <ifree+0x231>
 804aaf2:	8b 83 10 01 00 00    	mov    0x110(%ebx),%eax
 804aaf8:	8b 93 d8 00 00 00    	mov    0xd8(%ebx),%edx
 804aafe:	89 10                	mov    %edx,(%eax)
 804ab00:	8b 83 10 01 00 00    	mov    0x110(%ebx),%eax
 804ab06:	8d 93 d8 00 00 00    	lea    0xd8(%ebx),%edx
 804ab0c:	89 50 04             	mov    %edx,0x4(%eax)
 804ab0f:	8b 83 10 01 00 00    	mov    0x110(%ebx),%eax
 804ab15:	89 83 d8 00 00 00    	mov    %eax,0xd8(%ebx)
 804ab1b:	8b 83 10 01 00 00    	mov    0x110(%ebx),%eax
 804ab21:	89 45 c0             	mov    %eax,-0x40(%ebp)
 804ab24:	c7 83 10 01 00 00 00 	movl   $0x0,0x110(%ebx)
 804ab2b:	00 00 00 
 804ab2e:	e9 a2 01 00 00       	jmp    804acd5 <ifree+0x3d3>
 804ab33:	8b 45 c8             	mov    -0x38(%ebp),%eax
 804ab36:	8b 55 dc             	mov    -0x24(%ebp),%edx
 804ab39:	01 d0                	add    %edx,%eax
 804ab3b:	89 45 c4             	mov    %eax,-0x3c(%ebp)
 804ab3e:	8b 83 d8 00 00 00    	mov    0xd8(%ebx),%eax
 804ab44:	89 45 c0             	mov    %eax,-0x40(%ebp)
 804ab47:	eb 08                	jmp    804ab51 <ifree+0x24f>
 804ab49:	8b 45 c0             	mov    -0x40(%ebp),%eax
 804ab4c:	8b 00                	mov    (%eax),%eax
 804ab4e:	89 45 c0             	mov    %eax,-0x40(%ebp)
 804ab51:	8b 45 c0             	mov    -0x40(%ebp),%eax
 804ab54:	8b 40 0c             	mov    0xc(%eax),%eax
 804ab57:	39 45 dc             	cmp    %eax,-0x24(%ebp)
 804ab5a:	76 09                	jbe    804ab65 <ifree+0x263>
 804ab5c:	8b 45 c0             	mov    -0x40(%ebp),%eax
 804ab5f:	8b 00                	mov    (%eax),%eax
 804ab61:	85 c0                	test   %eax,%eax
 804ab63:	75 e4                	jne    804ab49 <ifree+0x247>
 804ab65:	8b 45 c0             	mov    -0x40(%ebp),%eax
 804ab68:	8b 40 08             	mov    0x8(%eax),%eax
 804ab6b:	39 45 c4             	cmp    %eax,-0x3c(%ebp)
 804ab6e:	73 4f                	jae    804abbf <ifree+0x2bd>
 804ab70:	8b 83 10 01 00 00    	mov    0x110(%ebx),%eax
 804ab76:	8b 55 c0             	mov    -0x40(%ebp),%edx
 804ab79:	89 10                	mov    %edx,(%eax)
 804ab7b:	8b 83 10 01 00 00    	mov    0x110(%ebx),%eax
 804ab81:	8b 55 c0             	mov    -0x40(%ebp),%edx
 804ab84:	8b 52 04             	mov    0x4(%edx),%edx
 804ab87:	89 50 04             	mov    %edx,0x4(%eax)
 804ab8a:	8b 93 10 01 00 00    	mov    0x110(%ebx),%edx
 804ab90:	8b 45 c0             	mov    -0x40(%ebp),%eax
 804ab93:	89 50 04             	mov    %edx,0x4(%eax)
 804ab96:	8b 83 10 01 00 00    	mov    0x110(%ebx),%eax
 804ab9c:	8b 40 04             	mov    0x4(%eax),%eax
 804ab9f:	8b 93 10 01 00 00    	mov    0x110(%ebx),%edx
 804aba5:	89 10                	mov    %edx,(%eax)
 804aba7:	8b 83 10 01 00 00    	mov    0x110(%ebx),%eax
 804abad:	89 45 c0             	mov    %eax,-0x40(%ebp)
 804abb0:	c7 83 10 01 00 00 00 	movl   $0x0,0x110(%ebx)
 804abb7:	00 00 00 
 804abba:	e9 16 01 00 00       	jmp    804acd5 <ifree+0x3d3>
 804abbf:	8b 45 c0             	mov    -0x40(%ebp),%eax
 804abc2:	8b 40 0c             	mov    0xc(%eax),%eax
 804abc5:	39 45 dc             	cmp    %eax,-0x24(%ebp)
 804abc8:	0f 85 91 00 00 00    	jne    804ac5f <ifree+0x35d>
 804abce:	8b 45 c0             	mov    -0x40(%ebp),%eax
 804abd1:	8b 40 0c             	mov    0xc(%eax),%eax
 804abd4:	89 c2                	mov    %eax,%edx
 804abd6:	03 55 c8             	add    -0x38(%ebp),%edx
 804abd9:	8b 45 c0             	mov    -0x40(%ebp),%eax
 804abdc:	89 50 0c             	mov    %edx,0xc(%eax)
 804abdf:	8b 45 c0             	mov    -0x40(%ebp),%eax
 804abe2:	8b 40 10             	mov    0x10(%eax),%eax
 804abe5:	89 c2                	mov    %eax,%edx
 804abe7:	03 55 c8             	add    -0x38(%ebp),%edx
 804abea:	8b 45 c0             	mov    -0x40(%ebp),%eax
 804abed:	89 50 10             	mov    %edx,0x10(%eax)
 804abf0:	8b 45 c0             	mov    -0x40(%ebp),%eax
 804abf3:	8b 00                	mov    (%eax),%eax
 804abf5:	85 c0                	test   %eax,%eax
 804abf7:	0f 84 d8 00 00 00    	je     804acd5 <ifree+0x3d3>
 804abfd:	8b 45 c0             	mov    -0x40(%ebp),%eax
 804ac00:	8b 50 0c             	mov    0xc(%eax),%edx
 804ac03:	8b 45 c0             	mov    -0x40(%ebp),%eax
 804ac06:	8b 00                	mov    (%eax),%eax
 804ac08:	8b 40 08             	mov    0x8(%eax),%eax
 804ac0b:	39 c2                	cmp    %eax,%edx
 804ac0d:	0f 85 c2 00 00 00    	jne    804acd5 <ifree+0x3d3>
 804ac13:	8b 45 c0             	mov    -0x40(%ebp),%eax
 804ac16:	8b 00                	mov    (%eax),%eax
 804ac18:	89 45 d0             	mov    %eax,-0x30(%ebp)
 804ac1b:	8b 45 d0             	mov    -0x30(%ebp),%eax
 804ac1e:	8b 50 0c             	mov    0xc(%eax),%edx
 804ac21:	8b 45 c0             	mov    -0x40(%ebp),%eax
 804ac24:	89 50 0c             	mov    %edx,0xc(%eax)
 804ac27:	8b 45 c0             	mov    -0x40(%ebp),%eax
 804ac2a:	8b 50 10             	mov    0x10(%eax),%edx
 804ac2d:	8b 45 d0             	mov    -0x30(%ebp),%eax
 804ac30:	8b 40 10             	mov    0x10(%eax),%eax
 804ac33:	01 c2                	add    %eax,%edx
 804ac35:	8b 45 c0             	mov    -0x40(%ebp),%eax
 804ac38:	89 50 10             	mov    %edx,0x10(%eax)
 804ac3b:	8b 45 d0             	mov    -0x30(%ebp),%eax
 804ac3e:	8b 10                	mov    (%eax),%edx
 804ac40:	8b 45 c0             	mov    -0x40(%ebp),%eax
 804ac43:	89 10                	mov    %edx,(%eax)
 804ac45:	8b 45 c0             	mov    -0x40(%ebp),%eax
 804ac48:	8b 00                	mov    (%eax),%eax
 804ac4a:	85 c0                	test   %eax,%eax
 804ac4c:	0f 84 83 00 00 00    	je     804acd5 <ifree+0x3d3>
 804ac52:	8b 45 c0             	mov    -0x40(%ebp),%eax
 804ac55:	8b 00                	mov    (%eax),%eax
 804ac57:	8b 55 c0             	mov    -0x40(%ebp),%edx
 804ac5a:	89 50 04             	mov    %edx,0x4(%eax)
 804ac5d:	eb 76                	jmp    804acd5 <ifree+0x3d3>
 804ac5f:	8b 45 c0             	mov    -0x40(%ebp),%eax
 804ac62:	8b 40 08             	mov    0x8(%eax),%eax
 804ac65:	39 45 c4             	cmp    %eax,-0x3c(%ebp)
 804ac68:	75 1c                	jne    804ac86 <ifree+0x384>
 804ac6a:	8b 45 c0             	mov    -0x40(%ebp),%eax
 804ac6d:	8b 40 10             	mov    0x10(%eax),%eax
 804ac70:	89 c2                	mov    %eax,%edx
 804ac72:	03 55 c8             	add    -0x38(%ebp),%edx
 804ac75:	8b 45 c0             	mov    -0x40(%ebp),%eax
 804ac78:	89 50 10             	mov    %edx,0x10(%eax)
 804ac7b:	8b 45 c0             	mov    -0x40(%ebp),%eax
 804ac7e:	8b 55 dc             	mov    -0x24(%ebp),%edx
 804ac81:	89 50 08             	mov    %edx,0x8(%eax)
 804ac84:	eb 4f                	jmp    804acd5 <ifree+0x3d3>
 804ac86:	8b 45 c0             	mov    -0x40(%ebp),%eax
 804ac89:	8b 00                	mov    (%eax),%eax
 804ac8b:	85 c0                	test   %eax,%eax
 804ac8d:	75 38                	jne    804acc7 <ifree+0x3c5>
 804ac8f:	8b 83 10 01 00 00    	mov    0x110(%ebx),%eax
 804ac95:	c7 00 00 00 00 00    	movl   $0x0,(%eax)
 804ac9b:	8b 83 10 01 00 00    	mov    0x110(%ebx),%eax
 804aca1:	8b 55 c0             	mov    -0x40(%ebp),%edx
 804aca4:	89 50 04             	mov    %edx,0x4(%eax)
 804aca7:	8b 93 10 01 00 00    	mov    0x110(%ebx),%edx
 804acad:	8b 45 c0             	mov    -0x40(%ebp),%eax
 804acb0:	89 10                	mov    %edx,(%eax)
 804acb2:	8b 83 10 01 00 00    	mov    0x110(%ebx),%eax
 804acb8:	89 45 c0             	mov    %eax,-0x40(%ebp)
 804acbb:	c7 83 10 01 00 00 00 	movl   $0x0,0x110(%ebx)
 804acc2:	00 00 00 
 804acc5:	eb 0e                	jmp    804acd5 <ifree+0x3d3>
 804acc7:	8d 83 f5 d9 ff ff    	lea    -0x260b(%ebx),%eax
 804accd:	89 04 24             	mov    %eax,(%esp)
 804acd0:	e8 3b e4 ff ff       	call   8049110 <wrterror>
 804acd5:	8b 45 c0             	mov    -0x40(%ebp),%eax
 804acd8:	8b 00                	mov    (%eax),%eax
 804acda:	85 c0                	test   %eax,%eax
 804acdc:	0f 85 cd 00 00 00    	jne    804adaf <ifree+0x4ad>
 804ace2:	8b 45 c0             	mov    -0x40(%ebp),%eax
 804ace5:	8b 50 10             	mov    0x10(%eax),%edx
 804ace8:	8b 83 0c 00 00 00    	mov    0xc(%ebx),%eax
 804acee:	39 c2                	cmp    %eax,%edx
 804acf0:	0f 86 b9 00 00 00    	jbe    804adaf <ifree+0x4ad>
 804acf6:	8b 45 c0             	mov    -0x40(%ebp),%eax
 804acf9:	8b 50 0c             	mov    0xc(%eax),%edx
 804acfc:	8b 83 0c 01 00 00    	mov    0x10c(%ebx),%eax
 804ad02:	39 c2                	cmp    %eax,%edx
 804ad04:	0f 85 a5 00 00 00    	jne    804adaf <ifree+0x4ad>
 804ad0a:	c7 04 24 00 00 00 00 	movl   $0x0,(%esp)
 804ad11:	e8 ea d4 ff ff       	call   8048200 <sbrk>
 804ad16:	8b 93 0c 01 00 00    	mov    0x10c(%ebx),%edx
 804ad1c:	39 d0                	cmp    %edx,%eax
 804ad1e:	0f 85 8b 00 00 00    	jne    804adaf <ifree+0x4ad>
 804ad24:	8b 45 c0             	mov    -0x40(%ebp),%eax
 804ad27:	8b 50 08             	mov    0x8(%eax),%edx
 804ad2a:	8b 83 0c 00 00 00    	mov    0xc(%ebx),%eax
 804ad30:	01 c2                	add    %eax,%edx
 804ad32:	8b 45 c0             	mov    -0x40(%ebp),%eax
 804ad35:	89 50 0c             	mov    %edx,0xc(%eax)
 804ad38:	8b 93 0c 00 00 00    	mov    0xc(%ebx),%edx
 804ad3e:	8b 45 c0             	mov    -0x40(%ebp),%eax
 804ad41:	89 50 10             	mov    %edx,0x10(%eax)
 804ad44:	8b 45 c0             	mov    -0x40(%ebp),%eax
 804ad47:	8b 40 0c             	mov    0xc(%eax),%eax
 804ad4a:	89 04 24             	mov    %eax,(%esp)
 804ad4d:	e8 7e d5 ff ff       	call   80482d0 <brk>
 804ad52:	8b 45 c0             	mov    -0x40(%ebp),%eax
 804ad55:	8b 40 0c             	mov    0xc(%eax),%eax
 804ad58:	89 83 0c 01 00 00    	mov    %eax,0x10c(%ebx)
 804ad5e:	8b 45 c0             	mov    -0x40(%ebp),%eax
 804ad61:	8b 40 0c             	mov    0xc(%eax),%eax
 804ad64:	89 c2                	mov    %eax,%edx
 804ad66:	c1 ea 0c             	shr    $0xc,%edx
 804ad69:	8b 83 c8 00 00 00    	mov    0xc8(%ebx),%eax
 804ad6f:	89 d6                	mov    %edx,%esi
 804ad71:	29 c6                	sub    %eax,%esi
 804ad73:	89 f0                	mov    %esi,%eax
 804ad75:	89 45 d8             	mov    %eax,-0x28(%ebp)
 804ad78:	8b 45 d8             	mov    -0x28(%ebp),%eax
 804ad7b:	83 e8 01             	sub    $0x1,%eax
 804ad7e:	89 83 cc 00 00 00    	mov    %eax,0xcc(%ebx)
 804ad84:	8b 45 d8             	mov    -0x28(%ebp),%eax
 804ad87:	89 45 cc             	mov    %eax,-0x34(%ebp)
 804ad8a:	eb 18                	jmp    804ada4 <ifree+0x4a2>
 804ad8c:	8b 83 d0 00 00 00    	mov    0xd0(%ebx),%eax
 804ad92:	8b 55 cc             	mov    -0x34(%ebp),%edx
 804ad95:	c1 e2 02             	shl    $0x2,%edx
 804ad98:	01 d0                	add    %edx,%eax
 804ad9a:	c7 00 00 00 00 00    	movl   $0x0,(%eax)
 804ada0:	83 45 cc 01          	addl   $0x1,-0x34(%ebp)
 804ada4:	8b 83 cc 00 00 00    	mov    0xcc(%ebx),%eax
 804adaa:	39 45 cc             	cmp    %eax,-0x34(%ebp)
 804adad:	76 dd                	jbe    804ad8c <ifree+0x48a>
 804adaf:	83 7d d0 00          	cmpl   $0x0,-0x30(%ebp)
 804adb3:	0f 84 26 02 00 00    	je     804afdf <ifree+0x6dd>
 804adb9:	8b 45 d0             	mov    -0x30(%ebp),%eax
 804adbc:	89 04 24             	mov    %eax,(%esp)
 804adbf:	e8 3e fb ff ff       	call   804a902 <ifree>
 804adc4:	e9 16 02 00 00       	jmp    804afdf <ifree+0x6dd>
 804adc9:	8b 45 e4             	mov    -0x1c(%ebp),%eax
 804adcc:	8b 55 08             	mov    0x8(%ebp),%edx
 804adcf:	89 55 bc             	mov    %edx,-0x44(%ebp)
 804add2:	89 45 a8             	mov    %eax,-0x58(%ebp)
 804add5:	8b 45 e0             	mov    -0x20(%ebp),%eax
 804add8:	89 45 b8             	mov    %eax,-0x48(%ebp)
 804addb:	8b 45 bc             	mov    -0x44(%ebp),%eax
 804adde:	89 c2                	mov    %eax,%edx
 804ade0:	81 e2 ff 0f 00 00    	and    $0xfff,%edx
 804ade6:	8b 45 b8             	mov    -0x48(%ebp),%eax
 804ade9:	0f b7 40 0a          	movzwl 0xa(%eax),%eax
 804aded:	0f b7 c0             	movzwl %ax,%eax
 804adf0:	89 d6                	mov    %edx,%esi
 804adf2:	89 c1                	mov    %eax,%ecx
 804adf4:	d3 ee                	shr    %cl,%esi
 804adf6:	89 f0                	mov    %esi,%eax
 804adf8:	89 45 b4             	mov    %eax,-0x4c(%ebp)
 804adfb:	8b 45 b8             	mov    -0x48(%ebp),%eax
 804adfe:	0f b7 40 08          	movzwl 0x8(%eax),%eax
 804ae02:	0f b7 c0             	movzwl %ax,%eax
 804ae05:	83 e8 01             	sub    $0x1,%eax
 804ae08:	89 c2                	mov    %eax,%edx
 804ae0a:	8b 45 bc             	mov    -0x44(%ebp),%eax
 804ae0d:	21 d0                	and    %edx,%eax
 804ae0f:	85 c0                	test   %eax,%eax
 804ae11:	74 13                	je     804ae26 <ifree+0x524>
 804ae13:	8d 83 92 d9 ff ff    	lea    -0x266e(%ebx),%eax
 804ae19:	89 04 24             	mov    %eax,(%esp)
 804ae1c:	e8 ba e3 ff ff       	call   80491db <wrtwarning>
 804ae21:	e9 b9 01 00 00       	jmp    804afdf <ifree+0x6dd>
 804ae26:	8b 45 b4             	mov    -0x4c(%ebp),%eax
 804ae29:	89 c2                	mov    %eax,%edx
 804ae2b:	c1 ea 05             	shr    $0x5,%edx
 804ae2e:	8b 45 b8             	mov    -0x48(%ebp),%eax
 804ae31:	83 c2 04             	add    $0x4,%edx
 804ae34:	8b 14 90             	mov    (%eax,%edx,4),%edx
 804ae37:	8b 45 b4             	mov    -0x4c(%ebp),%eax
 804ae3a:	83 e0 1f             	and    $0x1f,%eax
 804ae3d:	be 01 00 00 00       	mov    $0x1,%esi
 804ae42:	89 f7                	mov    %esi,%edi
 804ae44:	89 c1                	mov    %eax,%ecx
 804ae46:	d3 e7                	shl    %cl,%edi
 804ae48:	89 f8                	mov    %edi,%eax
 804ae4a:	21 d0                	and    %edx,%eax
 804ae4c:	85 c0                	test   %eax,%eax
 804ae4e:	74 13                	je     804ae63 <ifree+0x561>
 804ae50:	8d 83 ae d9 ff ff    	lea    -0x2652(%ebx),%eax
 804ae56:	89 04 24             	mov    %eax,(%esp)
 804ae59:	e8 7d e3 ff ff       	call   80491db <wrtwarning>
 804ae5e:	e9 7c 01 00 00       	jmp    804afdf <ifree+0x6dd>
 804ae63:	8b 83 08 01 00 00    	mov    0x108(%ebx),%eax
 804ae69:	85 c0                	test   %eax,%eax
 804ae6b:	74 21                	je     804ae8e <ifree+0x58c>
 804ae6d:	8b 45 b8             	mov    -0x48(%ebp),%eax
 804ae70:	0f b7 40 08          	movzwl 0x8(%eax),%eax
 804ae74:	0f b7 c0             	movzwl %ax,%eax
 804ae77:	89 44 24 08          	mov    %eax,0x8(%esp)
 804ae7b:	c7 44 24 04 d0 00 00 	movl   $0xd0,0x4(%esp)
 804ae82:	00 
 804ae83:	8b 45 bc             	mov    -0x44(%ebp),%eax
 804ae86:	89 04 24             	mov    %eax,(%esp)
 804ae89:	e8 9a 05 00 00       	call   804b428 <memset>
 804ae8e:	8b 45 b4             	mov    -0x4c(%ebp),%eax
 804ae91:	c1 e8 05             	shr    $0x5,%eax
 804ae94:	8b 55 b8             	mov    -0x48(%ebp),%edx
 804ae97:	8d 48 04             	lea    0x4(%eax),%ecx
 804ae9a:	8b 34 8a             	mov    (%edx,%ecx,4),%esi
 804ae9d:	8b 55 b4             	mov    -0x4c(%ebp),%edx
 804aea0:	83 e2 1f             	and    $0x1f,%edx
 804aea3:	c7 45 a4 01 00 00 00 	movl   $0x1,-0x5c(%ebp)
 804aeaa:	8b 7d a4             	mov    -0x5c(%ebp),%edi
 804aead:	89 d1                	mov    %edx,%ecx
 804aeaf:	d3 e7                	shl    %cl,%edi
 804aeb1:	89 fa                	mov    %edi,%edx
 804aeb3:	89 f1                	mov    %esi,%ecx
 804aeb5:	09 d1                	or     %edx,%ecx
 804aeb7:	8b 55 b8             	mov    -0x48(%ebp),%edx
 804aeba:	83 c0 04             	add    $0x4,%eax
 804aebd:	89 0c 82             	mov    %ecx,(%edx,%eax,4)
 804aec0:	8b 45 b8             	mov    -0x48(%ebp),%eax
 804aec3:	0f b7 40 0c          	movzwl 0xc(%eax),%eax
 804aec7:	8d 50 01             	lea    0x1(%eax),%edx
 804aeca:	8b 45 b8             	mov    -0x48(%ebp),%eax
 804aecd:	66 89 50 0c          	mov    %dx,0xc(%eax)
 804aed1:	8b 93 d0 00 00 00    	mov    0xd0(%ebx),%edx
 804aed7:	8b 45 b8             	mov    -0x48(%ebp),%eax
 804aeda:	0f b7 40 0a          	movzwl 0xa(%eax),%eax
 804aede:	0f b7 c0             	movzwl %ax,%eax
 804aee1:	c1 e0 02             	shl    $0x2,%eax
 804aee4:	01 d0                	add    %edx,%eax
 804aee6:	89 45 b0             	mov    %eax,-0x50(%ebp)
 804aee9:	8b 45 b8             	mov    -0x48(%ebp),%eax
 804aeec:	0f b7 40 0c          	movzwl 0xc(%eax),%eax
 804aef0:	66 83 f8 01          	cmp    $0x1,%ax
 804aef4:	75 61                	jne    804af57 <ifree+0x655>
 804aef6:	8b 93 d0 00 00 00    	mov    0xd0(%ebx),%edx
 804aefc:	8b 45 b8             	mov    -0x48(%ebp),%eax
 804aeff:	0f b7 40 0a          	movzwl 0xa(%eax),%eax
 804af03:	0f b7 c0             	movzwl %ax,%eax
 804af06:	c1 e0 02             	shl    $0x2,%eax
 804af09:	01 d0                	add    %edx,%eax
 804af0b:	89 45 b0             	mov    %eax,-0x50(%ebp)
 804af0e:	eb 08                	jmp    804af18 <ifree+0x616>
 804af10:	8b 45 b0             	mov    -0x50(%ebp),%eax
 804af13:	8b 00                	mov    (%eax),%eax
 804af15:	89 45 b0             	mov    %eax,-0x50(%ebp)
 804af18:	8b 45 b0             	mov    -0x50(%ebp),%eax
 804af1b:	8b 00                	mov    (%eax),%eax
 804af1d:	85 c0                	test   %eax,%eax
 804af1f:	74 1f                	je     804af40 <ifree+0x63e>
 804af21:	8b 45 b0             	mov    -0x50(%ebp),%eax
 804af24:	8b 00                	mov    (%eax),%eax
 804af26:	8b 00                	mov    (%eax),%eax
 804af28:	85 c0                	test   %eax,%eax
 804af2a:	74 14                	je     804af40 <ifree+0x63e>
 804af2c:	8b 45 b0             	mov    -0x50(%ebp),%eax
 804af2f:	8b 00                	mov    (%eax),%eax
 804af31:	8b 00                	mov    (%eax),%eax
 804af33:	8b 50 04             	mov    0x4(%eax),%edx
 804af36:	8b 45 b8             	mov    -0x48(%ebp),%eax
 804af39:	8b 40 04             	mov    0x4(%eax),%eax
 804af3c:	39 c2                	cmp    %eax,%edx
 804af3e:	72 d0                	jb     804af10 <ifree+0x60e>
 804af40:	8b 45 b0             	mov    -0x50(%ebp),%eax
 804af43:	8b 10                	mov    (%eax),%edx
 804af45:	8b 45 b8             	mov    -0x48(%ebp),%eax
 804af48:	89 10                	mov    %edx,(%eax)
 804af4a:	8b 45 b0             	mov    -0x50(%ebp),%eax
 804af4d:	8b 55 b8             	mov    -0x48(%ebp),%edx
 804af50:	89 10                	mov    %edx,(%eax)
 804af52:	e9 88 00 00 00       	jmp    804afdf <ifree+0x6dd>
 804af57:	8b 45 b8             	mov    -0x48(%ebp),%eax
 804af5a:	0f b7 50 0c          	movzwl 0xc(%eax),%edx
 804af5e:	8b 45 b8             	mov    -0x48(%ebp),%eax
 804af61:	0f b7 40 0e          	movzwl 0xe(%eax),%eax
 804af65:	66 39 c2             	cmp    %ax,%dx
 804af68:	75 75                	jne    804afdf <ifree+0x6dd>
 804af6a:	eb 08                	jmp    804af74 <ifree+0x672>
 804af6c:	8b 45 b0             	mov    -0x50(%ebp),%eax
 804af6f:	8b 00                	mov    (%eax),%eax
 804af71:	89 45 b0             	mov    %eax,-0x50(%ebp)
 804af74:	8b 45 b0             	mov    -0x50(%ebp),%eax
 804af77:	8b 00                	mov    (%eax),%eax
 804af79:	39 45 b8             	cmp    %eax,-0x48(%ebp)
 804af7c:	75 ee                	jne    804af6c <ifree+0x66a>
 804af7e:	8b 45 b8             	mov    -0x48(%ebp),%eax
 804af81:	8b 10                	mov    (%eax),%edx
 804af83:	8b 45 b0             	mov    -0x50(%ebp),%eax
 804af86:	89 10                	mov    %edx,(%eax)
 804af88:	8b 93 d0 00 00 00    	mov    0xd0(%ebx),%edx
 804af8e:	8b 45 b8             	mov    -0x48(%ebp),%eax
 804af91:	8b 40 04             	mov    0x4(%eax),%eax
 804af94:	89 c1                	mov    %eax,%ecx
 804af96:	c1 e9 0c             	shr    $0xc,%ecx
 804af99:	8b 83 c8 00 00 00    	mov    0xc8(%ebx),%eax
 804af9f:	89 ce                	mov    %ecx,%esi
 804afa1:	29 c6                	sub    %eax,%esi
 804afa3:	89 f0                	mov    %esi,%eax
 804afa5:	c1 e0 02             	shl    $0x2,%eax
 804afa8:	01 d0                	add    %edx,%eax
 804afaa:	c7 00 02 00 00 00    	movl   $0x2,(%eax)
 804afb0:	8b 45 b8             	mov    -0x48(%ebp),%eax
 804afb3:	8b 40 04             	mov    0x4(%eax),%eax
 804afb6:	89 45 ac             	mov    %eax,-0x54(%ebp)
 804afb9:	8b 45 b8             	mov    -0x48(%ebp),%eax
 804afbc:	3b 45 ac             	cmp    -0x54(%ebp),%eax
 804afbf:	74 0b                	je     804afcc <ifree+0x6ca>
 804afc1:	8b 45 b8             	mov    -0x48(%ebp),%eax
 804afc4:	89 04 24             	mov    %eax,(%esp)
 804afc7:	e8 36 f9 ff ff       	call   804a902 <ifree>
 804afcc:	8b 45 ac             	mov    -0x54(%ebp),%eax
 804afcf:	89 04 24             	mov    %eax,(%esp)
 804afd2:	e8 2b f9 ff ff       	call   804a902 <ifree>
 804afd7:	eb 06                	jmp    804afdf <ifree+0x6dd>
 804afd9:	90                   	nop
 804afda:	eb 04                	jmp    804afe0 <ifree+0x6de>
 804afdc:	90                   	nop
 804afdd:	eb 01                	jmp    804afe0 <ifree+0x6de>
 804afdf:	90                   	nop
 804afe0:	83 c4 6c             	add    $0x6c,%esp
 804afe3:	5b                   	pop    %ebx
 804afe4:	5e                   	pop    %esi
 804afe5:	5f                   	pop    %edi
 804afe6:	5d                   	pop    %ebp
 804afe7:	c3                   	ret    

0804afe8 <malloc>:
 804afe8:	55                   	push   %ebp
 804afe9:	89 e5                	mov    %esp,%ebp
 804afeb:	56                   	push   %esi
 804afec:	53                   	push   %ebx
 804afed:	83 ec 10             	sub    $0x10,%esp
 804aff0:	e8 16 e1 ff ff       	call   804910b <__i686.get_pc_thunk.bx>
 804aff5:	81 c3 53 36 00 00    	add    $0x3653,%ebx
 804affb:	8d 83 31 da ff ff    	lea    -0x25cf(%ebx),%eax
 804b001:	89 83 14 01 00 00    	mov    %eax,0x114(%ebx)
 804b007:	8b 83 c4 00 00 00    	mov    0xc4(%ebx),%eax
 804b00d:	85 c0                	test   %eax,%eax
 804b00f:	0f 95 c2             	setne  %dl
 804b012:	83 c0 01             	add    $0x1,%eax
 804b015:	89 83 c4 00 00 00    	mov    %eax,0xc4(%ebx)
 804b01b:	84 d2                	test   %dl,%dl
 804b01d:	74 24                	je     804b043 <malloc+0x5b>
 804b01f:	8d 83 3f da ff ff    	lea    -0x25c1(%ebx),%eax
 804b025:	89 04 24             	mov    %eax,(%esp)
 804b028:	e8 ae e1 ff ff       	call   80491db <wrtwarning>
 804b02d:	8b 83 c4 00 00 00    	mov    0xc4(%ebx),%eax
 804b033:	83 e8 01             	sub    $0x1,%eax
 804b036:	89 83 c4 00 00 00    	mov    %eax,0xc4(%ebx)
 804b03c:	b8 00 00 00 00       	mov    $0x0,%eax
 804b041:	eb 60                	jmp    804b0a3 <malloc+0xbb>
 804b043:	8b 83 c0 00 00 00    	mov    0xc0(%ebx),%eax
 804b049:	85 c0                	test   %eax,%eax
 804b04b:	75 05                	jne    804b052 <malloc+0x6a>
 804b04d:	e8 db e3 ff ff       	call   804942d <malloc_init>
 804b052:	8b 83 00 01 00 00    	mov    0x100(%ebx),%eax
 804b058:	85 c0                	test   %eax,%eax
 804b05a:	74 0d                	je     804b069 <malloc+0x81>
 804b05c:	83 7d 08 00          	cmpl   $0x0,0x8(%ebp)
 804b060:	75 07                	jne    804b069 <malloc+0x81>
 804b062:	be 00 00 00 00       	mov    $0x0,%esi
 804b067:	eb 0d                	jmp    804b076 <malloc+0x8e>
 804b069:	8b 45 08             	mov    0x8(%ebp),%eax
 804b06c:	89 04 24             	mov    %eax,(%esp)
 804b06f:	e8 3a ef ff ff       	call   8049fae <imalloc>
 804b074:	89 c6                	mov    %eax,%esi
 804b076:	8b 83 c4 00 00 00    	mov    0xc4(%ebx),%eax
 804b07c:	83 e8 01             	sub    $0x1,%eax
 804b07f:	89 83 c4 00 00 00    	mov    %eax,0xc4(%ebx)
 804b085:	8b 83 fc 00 00 00    	mov    0xfc(%ebx),%eax
 804b08b:	85 c0                	test   %eax,%eax
 804b08d:	74 12                	je     804b0a1 <malloc+0xb9>
 804b08f:	85 f6                	test   %esi,%esi
 804b091:	75 0e                	jne    804b0a1 <malloc+0xb9>
 804b093:	8d 83 50 da ff ff    	lea    -0x25b0(%ebx),%eax
 804b099:	89 04 24             	mov    %eax,(%esp)
 804b09c:	e8 6f e0 ff ff       	call   8049110 <wrterror>
 804b0a1:	89 f0                	mov    %esi,%eax
 804b0a3:	83 c4 10             	add    $0x10,%esp
 804b0a6:	5b                   	pop    %ebx
 804b0a7:	5e                   	pop    %esi
 804b0a8:	5d                   	pop    %ebp
 804b0a9:	c3                   	ret    

0804b0aa <free>:
 804b0aa:	55                   	push   %ebp
 804b0ab:	89 e5                	mov    %esp,%ebp
 804b0ad:	53                   	push   %ebx
 804b0ae:	83 ec 14             	sub    $0x14,%esp
 804b0b1:	e8 55 e0 ff ff       	call   804910b <__i686.get_pc_thunk.bx>
 804b0b6:	81 c3 92 35 00 00    	add    $0x3592,%ebx
 804b0bc:	8d 83 60 da ff ff    	lea    -0x25a0(%ebx),%eax
 804b0c2:	89 83 14 01 00 00    	mov    %eax,0x114(%ebx)
 804b0c8:	8b 83 c4 00 00 00    	mov    0xc4(%ebx),%eax
 804b0ce:	85 c0                	test   %eax,%eax
 804b0d0:	0f 95 c2             	setne  %dl
 804b0d3:	83 c0 01             	add    $0x1,%eax
 804b0d6:	89 83 c4 00 00 00    	mov    %eax,0xc4(%ebx)
 804b0dc:	84 d2                	test   %dl,%dl
 804b0de:	74 1f                	je     804b0ff <free+0x55>
 804b0e0:	8d 83 3f da ff ff    	lea    -0x25c1(%ebx),%eax
 804b0e6:	89 04 24             	mov    %eax,(%esp)
 804b0e9:	e8 ed e0 ff ff       	call   80491db <wrtwarning>
 804b0ee:	8b 83 c4 00 00 00    	mov    0xc4(%ebx),%eax
 804b0f4:	83 e8 01             	sub    $0x1,%eax
 804b0f7:	89 83 c4 00 00 00    	mov    %eax,0xc4(%ebx)
 804b0fd:	eb 1b                	jmp    804b11a <free+0x70>
 804b0ff:	8b 45 08             	mov    0x8(%ebp),%eax
 804b102:	89 04 24             	mov    %eax,(%esp)
 804b105:	e8 f8 f7 ff ff       	call   804a902 <ifree>
 804b10a:	8b 83 c4 00 00 00    	mov    0xc4(%ebx),%eax
 804b110:	83 e8 01             	sub    $0x1,%eax
 804b113:	89 83 c4 00 00 00    	mov    %eax,0xc4(%ebx)
 804b119:	90                   	nop
 804b11a:	83 c4 14             	add    $0x14,%esp
 804b11d:	5b                   	pop    %ebx
 804b11e:	5d                   	pop    %ebp
 804b11f:	c3                   	ret    

0804b120 <realloc>:
 804b120:	55                   	push   %ebp
 804b121:	89 e5                	mov    %esp,%ebp
 804b123:	56                   	push   %esi
 804b124:	53                   	push   %ebx
 804b125:	83 ec 10             	sub    $0x10,%esp
 804b128:	e8 de df ff ff       	call   804910b <__i686.get_pc_thunk.bx>
 804b12d:	81 c3 1b 35 00 00    	add    $0x351b,%ebx
 804b133:	8d 83 6c da ff ff    	lea    -0x2594(%ebx),%eax
 804b139:	89 83 14 01 00 00    	mov    %eax,0x114(%ebx)
 804b13f:	8b 83 c4 00 00 00    	mov    0xc4(%ebx),%eax
 804b145:	85 c0                	test   %eax,%eax
 804b147:	0f 95 c2             	setne  %dl
 804b14a:	83 c0 01             	add    $0x1,%eax
 804b14d:	89 83 c4 00 00 00    	mov    %eax,0xc4(%ebx)
 804b153:	84 d2                	test   %dl,%dl
 804b155:	74 27                	je     804b17e <realloc+0x5e>
 804b157:	8d 83 3f da ff ff    	lea    -0x25c1(%ebx),%eax
 804b15d:	89 04 24             	mov    %eax,(%esp)
 804b160:	e8 76 e0 ff ff       	call   80491db <wrtwarning>
 804b165:	8b 83 c4 00 00 00    	mov    0xc4(%ebx),%eax
 804b16b:	83 e8 01             	sub    $0x1,%eax
 804b16e:	89 83 c4 00 00 00    	mov    %eax,0xc4(%ebx)
 804b174:	b8 00 00 00 00       	mov    $0x0,%eax
 804b179:	e9 ac 00 00 00       	jmp    804b22a <realloc+0x10a>
 804b17e:	83 7d 08 00          	cmpl   $0x0,0x8(%ebp)
 804b182:	74 1f                	je     804b1a3 <realloc+0x83>
 804b184:	8b 83 c0 00 00 00    	mov    0xc0(%ebx),%eax
 804b18a:	85 c0                	test   %eax,%eax
 804b18c:	75 15                	jne    804b1a3 <realloc+0x83>
 804b18e:	8d 83 10 da ff ff    	lea    -0x25f0(%ebx),%eax
 804b194:	89 04 24             	mov    %eax,(%esp)
 804b197:	e8 3f e0 ff ff       	call   80491db <wrtwarning>
 804b19c:	c7 45 08 00 00 00 00 	movl   $0x0,0x8(%ebp)
 804b1a3:	8b 83 c0 00 00 00    	mov    0xc0(%ebx),%eax
 804b1a9:	85 c0                	test   %eax,%eax
 804b1ab:	75 05                	jne    804b1b2 <realloc+0x92>
 804b1ad:	e8 7b e2 ff ff       	call   804942d <malloc_init>
 804b1b2:	8b 83 00 01 00 00    	mov    0x100(%ebx),%eax
 804b1b8:	85 c0                	test   %eax,%eax
 804b1ba:	74 18                	je     804b1d4 <realloc+0xb4>
 804b1bc:	83 7d 0c 00          	cmpl   $0x0,0xc(%ebp)
 804b1c0:	75 12                	jne    804b1d4 <realloc+0xb4>
 804b1c2:	8b 45 08             	mov    0x8(%ebp),%eax
 804b1c5:	89 04 24             	mov    %eax,(%esp)
 804b1c8:	e8 35 f7 ff ff       	call   804a902 <ifree>
 804b1cd:	be 00 00 00 00       	mov    $0x0,%esi
 804b1d2:	eb 29                	jmp    804b1fd <realloc+0xdd>
 804b1d4:	83 7d 08 00          	cmpl   $0x0,0x8(%ebp)
 804b1d8:	75 0f                	jne    804b1e9 <realloc+0xc9>
 804b1da:	8b 45 0c             	mov    0xc(%ebp),%eax
 804b1dd:	89 04 24             	mov    %eax,(%esp)
 804b1e0:	e8 c9 ed ff ff       	call   8049fae <imalloc>
 804b1e5:	89 c6                	mov    %eax,%esi
 804b1e7:	eb 14                	jmp    804b1fd <realloc+0xdd>
 804b1e9:	8b 45 0c             	mov    0xc(%ebp),%eax
 804b1ec:	89 44 24 04          	mov    %eax,0x4(%esp)
 804b1f0:	8b 45 08             	mov    0x8(%ebp),%eax
 804b1f3:	89 04 24             	mov    %eax,(%esp)
 804b1f6:	e8 69 ee ff ff       	call   804a064 <irealloc>
 804b1fb:	89 c6                	mov    %eax,%esi
 804b1fd:	8b 83 c4 00 00 00    	mov    0xc4(%ebx),%eax
 804b203:	83 e8 01             	sub    $0x1,%eax
 804b206:	89 83 c4 00 00 00    	mov    %eax,0xc4(%ebx)
 804b20c:	8b 83 fc 00 00 00    	mov    0xfc(%ebx),%eax
 804b212:	85 c0                	test   %eax,%eax
 804b214:	74 12                	je     804b228 <realloc+0x108>
 804b216:	85 f6                	test   %esi,%esi
 804b218:	75 0e                	jne    804b228 <realloc+0x108>
 804b21a:	8d 83 50 da ff ff    	lea    -0x25b0(%ebx),%eax
 804b220:	89 04 24             	mov    %eax,(%esp)
 804b223:	e8 e8 de ff ff       	call   8049110 <wrterror>
 804b228:	89 f0                	mov    %esi,%eax
 804b22a:	83 c4 10             	add    $0x10,%esp
 804b22d:	5b                   	pop    %ebx
 804b22e:	5e                   	pop    %esi
 804b22f:	5d                   	pop    %ebp
 804b230:	c3                   	ret    

0804b231 <calloc>:
 804b231:	55                   	push   %ebp
 804b232:	89 e5                	mov    %esp,%ebp
 804b234:	53                   	push   %ebx
 804b235:	83 ec 24             	sub    $0x24,%esp
 804b238:	e8 ce de ff ff       	call   804910b <__i686.get_pc_thunk.bx>
 804b23d:	81 c3 0b 34 00 00    	add    $0x340b,%ebx
 804b243:	8b 45 08             	mov    0x8(%ebp),%eax
 804b246:	0f af 45 0c          	imul   0xc(%ebp),%eax
 804b24a:	89 04 24             	mov    %eax,(%esp)
 804b24d:	e8 96 fd ff ff       	call   804afe8 <malloc>
 804b252:	89 45 f4             	mov    %eax,-0xc(%ebp)
 804b255:	83 7d f4 00          	cmpl   $0x0,-0xc(%ebp)
 804b259:	75 07                	jne    804b262 <calloc+0x31>
 804b25b:	b8 00 00 00 00       	mov    $0x0,%eax
 804b260:	eb 21                	jmp    804b283 <calloc+0x52>
 804b262:	8b 45 08             	mov    0x8(%ebp),%eax
 804b265:	0f af 45 0c          	imul   0xc(%ebp),%eax
 804b269:	89 44 24 08          	mov    %eax,0x8(%esp)
 804b26d:	c7 44 24 04 00 00 00 	movl   $0x0,0x4(%esp)
 804b274:	00 
 804b275:	8b 45 f4             	mov    -0xc(%ebp),%eax
 804b278:	89 04 24             	mov    %eax,(%esp)
 804b27b:	e8 a8 01 00 00       	call   804b428 <memset>
 804b280:	8b 45 f4             	mov    -0xc(%ebp),%eax
 804b283:	83 c4 24             	add    $0x24,%esp
 804b286:	5b                   	pop    %ebx
 804b287:	5d                   	pop    %ebp
 804b288:	c3                   	ret    
 804b289:	90                   	nop
 804b28a:	90                   	nop
 804b28b:	90                   	nop

0804b28c <memcmp>:
 804b28c:	55                   	push   %ebp
 804b28d:	89 e5                	mov    %esp,%ebp
 804b28f:	83 ec 10             	sub    $0x10,%esp
 804b292:	c6 45 f7 00          	movb   $0x0,-0x9(%ebp)
 804b296:	8b 45 08             	mov    0x8(%ebp),%eax
 804b299:	89 45 fc             	mov    %eax,-0x4(%ebp)
 804b29c:	8b 45 0c             	mov    0xc(%ebp),%eax
 804b29f:	89 45 f8             	mov    %eax,-0x8(%ebp)
 804b2a2:	eb 27                	jmp    804b2cb <memcmp+0x3f>
 804b2a4:	8b 45 fc             	mov    -0x4(%ebp),%eax
 804b2a7:	0f b6 10             	movzbl (%eax),%edx
 804b2aa:	8b 45 f8             	mov    -0x8(%ebp),%eax
 804b2ad:	0f b6 00             	movzbl (%eax),%eax
 804b2b0:	89 d1                	mov    %edx,%ecx
 804b2b2:	28 c1                	sub    %al,%cl
 804b2b4:	89 c8                	mov    %ecx,%eax
 804b2b6:	88 45 f7             	mov    %al,-0x9(%ebp)
 804b2b9:	80 7d f7 00          	cmpb   $0x0,-0x9(%ebp)
 804b2bd:	75 14                	jne    804b2d3 <memcmp+0x47>
 804b2bf:	83 45 fc 01          	addl   $0x1,-0x4(%ebp)
 804b2c3:	83 45 f8 01          	addl   $0x1,-0x8(%ebp)
 804b2c7:	83 6d 10 01          	subl   $0x1,0x10(%ebp)
 804b2cb:	83 7d 10 00          	cmpl   $0x0,0x10(%ebp)
 804b2cf:	75 d3                	jne    804b2a4 <memcmp+0x18>
 804b2d1:	eb 01                	jmp    804b2d4 <memcmp+0x48>
 804b2d3:	90                   	nop
 804b2d4:	0f be 45 f7          	movsbl -0x9(%ebp),%eax
 804b2d8:	c9                   	leave  
 804b2d9:	c3                   	ret    

0804b2da <memcpy>:
 804b2da:	55                   	push   %ebp
 804b2db:	89 e5                	mov    %esp,%ebp
 804b2dd:	83 ec 10             	sub    $0x10,%esp
 804b2e0:	8b 45 08             	mov    0x8(%ebp),%eax
 804b2e3:	89 45 fc             	mov    %eax,-0x4(%ebp)
 804b2e6:	8b 45 0c             	mov    0xc(%ebp),%eax
 804b2e9:	89 45 f8             	mov    %eax,-0x8(%ebp)
 804b2ec:	eb 13                	jmp    804b301 <memcpy+0x27>
 804b2ee:	8b 45 f8             	mov    -0x8(%ebp),%eax
 804b2f1:	0f b6 10             	movzbl (%eax),%edx
 804b2f4:	8b 45 fc             	mov    -0x4(%ebp),%eax
 804b2f7:	88 10                	mov    %dl,(%eax)
 804b2f9:	83 45 fc 01          	addl   $0x1,-0x4(%ebp)
 804b2fd:	83 45 f8 01          	addl   $0x1,-0x8(%ebp)
 804b301:	83 7d 10 00          	cmpl   $0x0,0x10(%ebp)
 804b305:	0f 95 c0             	setne  %al
 804b308:	83 6d 10 01          	subl   $0x1,0x10(%ebp)
 804b30c:	84 c0                	test   %al,%al
 804b30e:	75 de                	jne    804b2ee <memcpy+0x14>
 804b310:	8b 45 08             	mov    0x8(%ebp),%eax
 804b313:	c9                   	leave  
 804b314:	c3                   	ret    

0804b315 <strncmp>:
 804b315:	55                   	push   %ebp
 804b316:	89 e5                	mov    %esp,%ebp
 804b318:	56                   	push   %esi
 804b319:	be 00 00 00 00       	mov    $0x0,%esi
 804b31e:	eb 3c                	jmp    804b35c <strncmp+0x47>
 804b320:	8b 45 08             	mov    0x8(%ebp),%eax
 804b323:	0f b6 00             	movzbl (%eax),%eax
 804b326:	89 c2                	mov    %eax,%edx
 804b328:	8b 45 0c             	mov    0xc(%ebp),%eax
 804b32b:	0f b6 00             	movzbl (%eax),%eax
 804b32e:	89 d1                	mov    %edx,%ecx
 804b330:	28 c1                	sub    %al,%cl
 804b332:	89 c8                	mov    %ecx,%eax
 804b334:	89 c6                	mov    %eax,%esi
 804b336:	89 f0                	mov    %esi,%eax
 804b338:	84 c0                	test   %al,%al
 804b33a:	0f 95 c0             	setne  %al
 804b33d:	83 45 0c 01          	addl   $0x1,0xc(%ebp)
 804b341:	84 c0                	test   %al,%al
 804b343:	75 1d                	jne    804b362 <strncmp+0x4d>
 804b345:	8b 45 08             	mov    0x8(%ebp),%eax
 804b348:	0f b6 00             	movzbl (%eax),%eax
 804b34b:	84 c0                	test   %al,%al
 804b34d:	0f 94 c0             	sete   %al
 804b350:	83 45 08 01          	addl   $0x1,0x8(%ebp)
 804b354:	84 c0                	test   %al,%al
 804b356:	75 0a                	jne    804b362 <strncmp+0x4d>
 804b358:	83 6d 10 01          	subl   $0x1,0x10(%ebp)
 804b35c:	83 7d 10 00          	cmpl   $0x0,0x10(%ebp)
 804b360:	75 be                	jne    804b320 <strncmp+0xb>
 804b362:	89 f2                	mov    %esi,%edx
 804b364:	0f be c2             	movsbl %dl,%eax
 804b367:	5e                   	pop    %esi
 804b368:	5d                   	pop    %ebp
 804b369:	c3                   	ret    

0804b36a <strcmp>:
 804b36a:	55                   	push   %ebp
 804b36b:	89 e5                	mov    %esp,%ebp
 804b36d:	56                   	push   %esi
 804b36e:	eb 01                	jmp    804b371 <strcmp+0x7>
 804b370:	90                   	nop
 804b371:	8b 45 08             	mov    0x8(%ebp),%eax
 804b374:	0f b6 00             	movzbl (%eax),%eax
 804b377:	89 c2                	mov    %eax,%edx
 804b379:	8b 45 0c             	mov    0xc(%ebp),%eax
 804b37c:	0f b6 00             	movzbl (%eax),%eax
 804b37f:	89 d1                	mov    %edx,%ecx
 804b381:	28 c1                	sub    %al,%cl
 804b383:	89 c8                	mov    %ecx,%eax
 804b385:	89 c6                	mov    %eax,%esi
 804b387:	89 f0                	mov    %esi,%eax
 804b389:	84 c0                	test   %al,%al
 804b38b:	0f 95 c0             	setne  %al
 804b38e:	83 45 0c 01          	addl   $0x1,0xc(%ebp)
 804b392:	84 c0                	test   %al,%al
 804b394:	75 13                	jne    804b3a9 <strcmp+0x3f>
 804b396:	8b 45 08             	mov    0x8(%ebp),%eax
 804b399:	0f b6 00             	movzbl (%eax),%eax
 804b39c:	84 c0                	test   %al,%al
 804b39e:	0f 94 c0             	sete   %al
 804b3a1:	83 45 08 01          	addl   $0x1,0x8(%ebp)
 804b3a5:	84 c0                	test   %al,%al
 804b3a7:	74 c7                	je     804b370 <strcmp+0x6>
 804b3a9:	89 f2                	mov    %esi,%edx
 804b3ab:	0f be c2             	movsbl %dl,%eax
 804b3ae:	5e                   	pop    %esi
 804b3af:	5d                   	pop    %ebp
 804b3b0:	c3                   	ret    

0804b3b1 <strcpy>:
 804b3b1:	55                   	push   %ebp
 804b3b2:	89 e5                	mov    %esp,%ebp
 804b3b4:	83 ec 10             	sub    $0x10,%esp
 804b3b7:	8b 45 08             	mov    0x8(%ebp),%eax
 804b3ba:	89 45 fc             	mov    %eax,-0x4(%ebp)
 804b3bd:	90                   	nop
 804b3be:	8b 45 0c             	mov    0xc(%ebp),%eax
 804b3c1:	0f b6 10             	movzbl (%eax),%edx
 804b3c4:	8b 45 08             	mov    0x8(%ebp),%eax
 804b3c7:	88 10                	mov    %dl,(%eax)
 804b3c9:	8b 45 08             	mov    0x8(%ebp),%eax
 804b3cc:	0f b6 00             	movzbl (%eax),%eax
 804b3cf:	84 c0                	test   %al,%al
 804b3d1:	0f 95 c0             	setne  %al
 804b3d4:	83 45 08 01          	addl   $0x1,0x8(%ebp)
 804b3d8:	83 45 0c 01          	addl   $0x1,0xc(%ebp)
 804b3dc:	84 c0                	test   %al,%al
 804b3de:	75 de                	jne    804b3be <strcpy+0xd>
 804b3e0:	8b 45 fc             	mov    -0x4(%ebp),%eax
 804b3e3:	c9                   	leave  
 804b3e4:	c3                   	ret    

0804b3e5 <strncpy>:
 804b3e5:	55                   	push   %ebp
 804b3e6:	89 e5                	mov    %esp,%ebp
 804b3e8:	83 ec 10             	sub    $0x10,%esp
 804b3eb:	8b 45 08             	mov    0x8(%ebp),%eax
 804b3ee:	89 45 fc             	mov    %eax,-0x4(%ebp)
 804b3f1:	90                   	nop
 804b3f2:	83 7d 10 00          	cmpl   $0x0,0x10(%ebp)
 804b3f6:	0f 95 c0             	setne  %al
 804b3f9:	83 6d 10 01          	subl   $0x1,0x10(%ebp)
 804b3fd:	84 c0                	test   %al,%al
 804b3ff:	74 22                	je     804b423 <strncpy+0x3e>
 804b401:	8b 45 0c             	mov    0xc(%ebp),%eax
 804b404:	0f b6 10             	movzbl (%eax),%edx
 804b407:	8b 45 08             	mov    0x8(%ebp),%eax
 804b40a:	88 10                	mov    %dl,(%eax)
 804b40c:	8b 45 08             	mov    0x8(%ebp),%eax
 804b40f:	0f b6 00             	movzbl (%eax),%eax
 804b412:	84 c0                	test   %al,%al
 804b414:	0f 95 c0             	setne  %al
 804b417:	83 45 08 01          	addl   $0x1,0x8(%ebp)
 804b41b:	83 45 0c 01          	addl   $0x1,0xc(%ebp)
 804b41f:	84 c0                	test   %al,%al
 804b421:	75 cf                	jne    804b3f2 <strncpy+0xd>
 804b423:	8b 45 fc             	mov    -0x4(%ebp),%eax
 804b426:	c9                   	leave  
 804b427:	c3                   	ret    

0804b428 <memset>:
 804b428:	55                   	push   %ebp
 804b429:	89 e5                	mov    %esp,%ebp
 804b42b:	83 ec 10             	sub    $0x10,%esp
 804b42e:	8b 45 08             	mov    0x8(%ebp),%eax
 804b431:	89 45 fc             	mov    %eax,-0x4(%ebp)
 804b434:	eb 0e                	jmp    804b444 <memset+0x1c>
 804b436:	8b 45 0c             	mov    0xc(%ebp),%eax
 804b439:	89 c2                	mov    %eax,%edx
 804b43b:	8b 45 fc             	mov    -0x4(%ebp),%eax
 804b43e:	88 10                	mov    %dl,(%eax)
 804b440:	83 45 fc 01          	addl   $0x1,-0x4(%ebp)
 804b444:	83 7d 10 00          	cmpl   $0x0,0x10(%ebp)
 804b448:	0f 95 c0             	setne  %al
 804b44b:	83 6d 10 01          	subl   $0x1,0x10(%ebp)
 804b44f:	84 c0                	test   %al,%al
 804b451:	75 e3                	jne    804b436 <memset+0xe>
 804b453:	8b 45 08             	mov    0x8(%ebp),%eax
 804b456:	c9                   	leave  
 804b457:	c3                   	ret    

0804b458 <strnlen>:
 804b458:	55                   	push   %ebp
 804b459:	89 e5                	mov    %esp,%ebp
 804b45b:	83 ec 10             	sub    $0x10,%esp
 804b45e:	8b 45 08             	mov    0x8(%ebp),%eax
 804b461:	89 45 fc             	mov    %eax,-0x4(%ebp)
 804b464:	eb 04                	jmp    804b46a <strnlen+0x12>
 804b466:	83 45 fc 01          	addl   $0x1,-0x4(%ebp)
 804b46a:	83 7d 0c 00          	cmpl   $0x0,0xc(%ebp)
 804b46e:	0f 95 c0             	setne  %al
 804b471:	83 6d 0c 01          	subl   $0x1,0xc(%ebp)
 804b475:	84 c0                	test   %al,%al
 804b477:	74 0a                	je     804b483 <strnlen+0x2b>
 804b479:	8b 45 fc             	mov    -0x4(%ebp),%eax
 804b47c:	0f b6 00             	movzbl (%eax),%eax
 804b47f:	84 c0                	test   %al,%al
 804b481:	75 e3                	jne    804b466 <strnlen+0xe>
 804b483:	8b 55 fc             	mov    -0x4(%ebp),%edx
 804b486:	8b 45 08             	mov    0x8(%ebp),%eax
 804b489:	89 d1                	mov    %edx,%ecx
 804b48b:	29 c1                	sub    %eax,%ecx
 804b48d:	89 c8                	mov    %ecx,%eax
 804b48f:	c9                   	leave  
 804b490:	c3                   	ret    

0804b491 <strcat>:
 804b491:	55                   	push   %ebp
 804b492:	89 e5                	mov    %esp,%ebp
 804b494:	83 ec 10             	sub    $0x10,%esp
 804b497:	8b 45 08             	mov    0x8(%ebp),%eax
 804b49a:	89 45 fc             	mov    %eax,-0x4(%ebp)
 804b49d:	eb 04                	jmp    804b4a3 <strcat+0x12>
 804b49f:	83 45 08 01          	addl   $0x1,0x8(%ebp)
 804b4a3:	8b 45 08             	mov    0x8(%ebp),%eax
 804b4a6:	0f b6 00             	movzbl (%eax),%eax
 804b4a9:	84 c0                	test   %al,%al
 804b4ab:	75 f2                	jne    804b49f <strcat+0xe>
 804b4ad:	90                   	nop
 804b4ae:	8b 45 0c             	mov    0xc(%ebp),%eax
 804b4b1:	0f b6 10             	movzbl (%eax),%edx
 804b4b4:	8b 45 08             	mov    0x8(%ebp),%eax
 804b4b7:	88 10                	mov    %dl,(%eax)
 804b4b9:	8b 45 08             	mov    0x8(%ebp),%eax
 804b4bc:	0f b6 00             	movzbl (%eax),%eax
 804b4bf:	84 c0                	test   %al,%al
 804b4c1:	0f 95 c0             	setne  %al
 804b4c4:	83 45 08 01          	addl   $0x1,0x8(%ebp)
 804b4c8:	83 45 0c 01          	addl   $0x1,0xc(%ebp)
 804b4cc:	84 c0                	test   %al,%al
 804b4ce:	75 de                	jne    804b4ae <strcat+0x1d>
 804b4d0:	8b 45 fc             	mov    -0x4(%ebp),%eax
 804b4d3:	c9                   	leave  
 804b4d4:	c3                   	ret    

0804b4d5 <strlen>:
 804b4d5:	55                   	push   %ebp
 804b4d6:	89 e5                	mov    %esp,%ebp
 804b4d8:	83 ec 10             	sub    $0x10,%esp
 804b4db:	8b 45 08             	mov    0x8(%ebp),%eax
 804b4de:	89 45 fc             	mov    %eax,-0x4(%ebp)
 804b4e1:	eb 04                	jmp    804b4e7 <strlen+0x12>
 804b4e3:	83 45 fc 01          	addl   $0x1,-0x4(%ebp)
 804b4e7:	8b 45 fc             	mov    -0x4(%ebp),%eax
 804b4ea:	0f b6 00             	movzbl (%eax),%eax
 804b4ed:	84 c0                	test   %al,%al
 804b4ef:	75 f2                	jne    804b4e3 <strlen+0xe>
 804b4f1:	8b 55 fc             	mov    -0x4(%ebp),%edx
 804b4f4:	8b 45 08             	mov    0x8(%ebp),%eax
 804b4f7:	89 d1                	mov    %edx,%ecx
 804b4f9:	29 c1                	sub    %eax,%ecx
 804b4fb:	89 c8                	mov    %ecx,%eax
 804b4fd:	c9                   	leave  
 804b4fe:	c3                   	ret    

0804b4ff <strchr>:
 804b4ff:	55                   	push   %ebp
 804b500:	89 e5                	mov    %esp,%ebp
 804b502:	eb 15                	jmp    804b519 <strchr+0x1a>
 804b504:	8b 45 08             	mov    0x8(%ebp),%eax
 804b507:	0f b6 00             	movzbl (%eax),%eax
 804b50a:	84 c0                	test   %al,%al
 804b50c:	75 07                	jne    804b515 <strchr+0x16>
 804b50e:	b8 00 00 00 00       	mov    $0x0,%eax
 804b513:	eb 14                	jmp    804b529 <strchr+0x2a>
 804b515:	83 45 08 01          	addl   $0x1,0x8(%ebp)
 804b519:	8b 45 08             	mov    0x8(%ebp),%eax
 804b51c:	0f b6 10             	movzbl (%eax),%edx
 804b51f:	8b 45 0c             	mov    0xc(%ebp),%eax
 804b522:	38 c2                	cmp    %al,%dl
 804b524:	75 de                	jne    804b504 <strchr+0x5>
 804b526:	8b 45 08             	mov    0x8(%ebp),%eax
 804b529:	5d                   	pop    %ebp
 804b52a:	c3                   	ret    

0804b52b <strrchr>:
 804b52b:	55                   	push   %ebp
 804b52c:	89 e5                	mov    %esp,%ebp
 804b52e:	83 ec 10             	sub    $0x10,%esp
 804b531:	c7 45 fc 00 00 00 00 	movl   $0x0,-0x4(%ebp)
 804b538:	eb 17                	jmp    804b551 <strrchr+0x26>
 804b53a:	8b 45 08             	mov    0x8(%ebp),%eax
 804b53d:	0f b6 10             	movzbl (%eax),%edx
 804b540:	8b 45 0c             	mov    0xc(%ebp),%eax
 804b543:	38 c2                	cmp    %al,%dl
 804b545:	75 06                	jne    804b54d <strrchr+0x22>
 804b547:	8b 45 08             	mov    0x8(%ebp),%eax
 804b54a:	89 45 fc             	mov    %eax,-0x4(%ebp)
 804b54d:	83 45 08 01          	addl   $0x1,0x8(%ebp)
 804b551:	8b 45 08             	mov    0x8(%ebp),%eax
 804b554:	0f b6 00             	movzbl (%eax),%eax
 804b557:	84 c0                	test   %al,%al
 804b559:	75 df                	jne    804b53a <strrchr+0xf>
 804b55b:	8b 45 fc             	mov    -0x4(%ebp),%eax
 804b55e:	c9                   	leave  
 804b55f:	c3                   	ret    

0804b560 <strstr>:
 804b560:	55                   	push   %ebp
 804b561:	89 e5                	mov    %esp,%ebp
 804b563:	53                   	push   %ebx
 804b564:	83 ec 24             	sub    $0x24,%esp
 804b567:	e8 9f db ff ff       	call   804910b <__i686.get_pc_thunk.bx>
 804b56c:	81 c3 dc 30 00 00    	add    $0x30dc,%ebx
 804b572:	8b 45 0c             	mov    0xc(%ebp),%eax
 804b575:	89 04 24             	mov    %eax,(%esp)
 804b578:	e8 58 ff ff ff       	call   804b4d5 <strlen>
 804b57d:	89 45 f0             	mov    %eax,-0x10(%ebp)
 804b580:	83 7d f0 00          	cmpl   $0x0,-0x10(%ebp)
 804b584:	75 05                	jne    804b58b <strstr+0x2b>
 804b586:	8b 45 08             	mov    0x8(%ebp),%eax
 804b589:	eb 47                	jmp    804b5d2 <strstr+0x72>
 804b58b:	8b 45 08             	mov    0x8(%ebp),%eax
 804b58e:	89 04 24             	mov    %eax,(%esp)
 804b591:	e8 3f ff ff ff       	call   804b4d5 <strlen>
 804b596:	89 45 f4             	mov    %eax,-0xc(%ebp)
 804b599:	eb 2a                	jmp    804b5c5 <strstr+0x65>
 804b59b:	83 6d f4 01          	subl   $0x1,-0xc(%ebp)
 804b59f:	8b 45 f0             	mov    -0x10(%ebp),%eax
 804b5a2:	89 44 24 08          	mov    %eax,0x8(%esp)
 804b5a6:	8b 45 0c             	mov    0xc(%ebp),%eax
 804b5a9:	89 44 24 04          	mov    %eax,0x4(%esp)
 804b5ad:	8b 45 08             	mov    0x8(%ebp),%eax
 804b5b0:	89 04 24             	mov    %eax,(%esp)
 804b5b3:	e8 d4 fc ff ff       	call   804b28c <memcmp>
 804b5b8:	85 c0                	test   %eax,%eax
 804b5ba:	75 05                	jne    804b5c1 <strstr+0x61>
 804b5bc:	8b 45 08             	mov    0x8(%ebp),%eax
 804b5bf:	eb 11                	jmp    804b5d2 <strstr+0x72>
 804b5c1:	83 45 08 01          	addl   $0x1,0x8(%ebp)
 804b5c5:	8b 45 f4             	mov    -0xc(%ebp),%eax
 804b5c8:	3b 45 f0             	cmp    -0x10(%ebp),%eax
 804b5cb:	7d ce                	jge    804b59b <strstr+0x3b>
 804b5cd:	b8 00 00 00 00       	mov    $0x0,%eax
 804b5d2:	83 c4 24             	add    $0x24,%esp
 804b5d5:	5b                   	pop    %ebx
 804b5d6:	5d                   	pop    %ebp
 804b5d7:	c3                   	ret    

0804b5d8 <strdup>:
 804b5d8:	55                   	push   %ebp
 804b5d9:	89 e5                	mov    %esp,%ebp
 804b5db:	b8 00 00 00 00       	mov    $0x0,%eax
 804b5e0:	5d                   	pop    %ebp
 804b5e1:	c3                   	ret    

0804b5e2 <strpbrk>:
 804b5e2:	55                   	push   %ebp
 804b5e3:	89 e5                	mov    %esp,%ebp
 804b5e5:	83 ec 10             	sub    $0x10,%esp
 804b5e8:	8b 45 0c             	mov    0xc(%ebp),%eax
 804b5eb:	89 45 fc             	mov    %eax,-0x4(%ebp)
 804b5ee:	eb 04                	jmp    804b5f4 <strpbrk+0x12>
 804b5f0:	83 45 fc 01          	addl   $0x1,-0x4(%ebp)
 804b5f4:	8b 45 fc             	mov    -0x4(%ebp),%eax
 804b5f7:	0f b6 00             	movzbl (%eax),%eax
 804b5fa:	84 c0                	test   %al,%al
 804b5fc:	74 10                	je     804b60e <strpbrk+0x2c>
 804b5fe:	8b 45 fc             	mov    -0x4(%ebp),%eax
 804b601:	0f b6 10             	movzbl (%eax),%edx
 804b604:	8b 45 08             	mov    0x8(%ebp),%eax
 804b607:	0f b6 00             	movzbl (%eax),%eax
 804b60a:	38 c2                	cmp    %al,%dl
 804b60c:	75 e2                	jne    804b5f0 <strpbrk+0xe>
 804b60e:	8b 45 fc             	mov    -0x4(%ebp),%eax
 804b611:	0f b6 00             	movzbl (%eax),%eax
 804b614:	84 c0                	test   %al,%al
 804b616:	74 05                	je     804b61d <strpbrk+0x3b>
 804b618:	8b 45 08             	mov    0x8(%ebp),%eax
 804b61b:	eb 18                	jmp    804b635 <strpbrk+0x53>
 804b61d:	8b 45 08             	mov    0x8(%ebp),%eax
 804b620:	0f b6 00             	movzbl (%eax),%eax
 804b623:	84 c0                	test   %al,%al
 804b625:	0f 95 c0             	setne  %al
 804b628:	83 45 08 01          	addl   $0x1,0x8(%ebp)
 804b62c:	84 c0                	test   %al,%al
 804b62e:	75 b8                	jne    804b5e8 <strpbrk+0x6>
 804b630:	b8 00 00 00 00       	mov    $0x0,%eax
 804b635:	c9                   	leave  
 804b636:	c3                   	ret    

0804b637 <strspn>:
 804b637:	55                   	push   %ebp
 804b638:	89 e5                	mov    %esp,%ebp
 804b63a:	83 ec 10             	sub    $0x10,%esp
 804b63d:	8b 45 08             	mov    0x8(%ebp),%eax
 804b640:	89 45 f8             	mov    %eax,-0x8(%ebp)
 804b643:	eb 34                	jmp    804b679 <strspn+0x42>
 804b645:	8b 45 0c             	mov    0xc(%ebp),%eax
 804b648:	89 45 fc             	mov    %eax,-0x4(%ebp)
 804b64b:	eb 04                	jmp    804b651 <strspn+0x1a>
 804b64d:	83 45 fc 01          	addl   $0x1,-0x4(%ebp)
 804b651:	8b 45 fc             	mov    -0x4(%ebp),%eax
 804b654:	0f b6 00             	movzbl (%eax),%eax
 804b657:	84 c0                	test   %al,%al
 804b659:	74 10                	je     804b66b <strspn+0x34>
 804b65b:	8b 45 fc             	mov    -0x4(%ebp),%eax
 804b65e:	0f b6 10             	movzbl (%eax),%edx
 804b661:	8b 45 f8             	mov    -0x8(%ebp),%eax
 804b664:	0f b6 00             	movzbl (%eax),%eax
 804b667:	38 c2                	cmp    %al,%dl
 804b669:	75 e2                	jne    804b64d <strspn+0x16>
 804b66b:	8b 45 fc             	mov    -0x4(%ebp),%eax
 804b66e:	0f b6 00             	movzbl (%eax),%eax
 804b671:	84 c0                	test   %al,%al
 804b673:	74 10                	je     804b685 <strspn+0x4e>
 804b675:	83 45 f8 01          	addl   $0x1,-0x8(%ebp)
 804b679:	8b 45 f8             	mov    -0x8(%ebp),%eax
 804b67c:	0f b6 00             	movzbl (%eax),%eax
 804b67f:	84 c0                	test   %al,%al
 804b681:	75 c2                	jne    804b645 <strspn+0xe>
 804b683:	eb 01                	jmp    804b686 <strspn+0x4f>
 804b685:	90                   	nop
 804b686:	8b 55 f8             	mov    -0x8(%ebp),%edx
 804b689:	8b 45 08             	mov    0x8(%ebp),%eax
 804b68c:	89 d1                	mov    %edx,%ecx
 804b68e:	29 c1                	sub    %eax,%ecx
 804b690:	89 c8                	mov    %ecx,%eax
 804b692:	c9                   	leave  
 804b693:	c3                   	ret    

0804b694 <strtok>:
 804b694:	55                   	push   %ebp
 804b695:	89 e5                	mov    %esp,%ebp
 804b697:	53                   	push   %ebx
 804b698:	83 ec 24             	sub    $0x24,%esp
 804b69b:	e8 6b da ff ff       	call   804910b <__i686.get_pc_thunk.bx>
 804b6a0:	81 c3 a8 2f 00 00    	add    $0x2fa8,%ebx
 804b6a6:	83 7d 08 00          	cmpl   $0x0,0x8(%ebp)
 804b6aa:	75 08                	jne    804b6b4 <strtok+0x20>
 804b6ac:	8b 83 18 01 00 00    	mov    0x118(%ebx),%eax
 804b6b2:	eb 03                	jmp    804b6b7 <strtok+0x23>
 804b6b4:	8b 45 08             	mov    0x8(%ebp),%eax
 804b6b7:	89 45 f4             	mov    %eax,-0xc(%ebp)
 804b6ba:	83 7d f4 00          	cmpl   $0x0,-0xc(%ebp)
 804b6be:	75 07                	jne    804b6c7 <strtok+0x33>
 804b6c0:	b8 00 00 00 00       	mov    $0x0,%eax
 804b6c5:	eb 66                	jmp    804b72d <strtok+0x99>
 804b6c7:	8b 45 0c             	mov    0xc(%ebp),%eax
 804b6ca:	89 44 24 04          	mov    %eax,0x4(%esp)
 804b6ce:	8b 45 f4             	mov    -0xc(%ebp),%eax
 804b6d1:	89 04 24             	mov    %eax,(%esp)
 804b6d4:	e8 5e ff ff ff       	call   804b637 <strspn>
 804b6d9:	03 45 f4             	add    -0xc(%ebp),%eax
 804b6dc:	89 45 f0             	mov    %eax,-0x10(%ebp)
 804b6df:	8b 45 f0             	mov    -0x10(%ebp),%eax
 804b6e2:	0f b6 00             	movzbl (%eax),%eax
 804b6e5:	84 c0                	test   %al,%al
 804b6e7:	75 07                	jne    804b6f0 <strtok+0x5c>
 804b6e9:	b8 00 00 00 00       	mov    $0x0,%eax
 804b6ee:	eb 3d                	jmp    804b72d <strtok+0x99>
 804b6f0:	8b 45 0c             	mov    0xc(%ebp),%eax
 804b6f3:	89 44 24 04          	mov    %eax,0x4(%esp)
 804b6f7:	8b 45 f0             	mov    -0x10(%ebp),%eax
 804b6fa:	89 04 24             	mov    %eax,(%esp)
 804b6fd:	e8 e0 fe ff ff       	call   804b5e2 <strpbrk>
 804b702:	89 45 ec             	mov    %eax,-0x14(%ebp)
 804b705:	83 7d ec 00          	cmpl   $0x0,-0x14(%ebp)
 804b709:	75 0c                	jne    804b717 <strtok+0x83>
 804b70b:	c7 83 18 01 00 00 00 	movl   $0x0,0x118(%ebx)
 804b712:	00 00 00 
 804b715:	eb 13                	jmp    804b72a <strtok+0x96>
 804b717:	8b 45 ec             	mov    -0x14(%ebp),%eax
 804b71a:	c6 00 00             	movb   $0x0,(%eax)
 804b71d:	83 45 ec 01          	addl   $0x1,-0x14(%ebp)
 804b721:	8b 45 ec             	mov    -0x14(%ebp),%eax
 804b724:	89 83 18 01 00 00    	mov    %eax,0x118(%ebx)
 804b72a:	8b 45 f0             	mov    -0x10(%ebp),%eax
 804b72d:	83 c4 24             	add    $0x24,%esp
 804b730:	5b                   	pop    %ebx
 804b731:	5d                   	pop    %ebp
 804b732:	c3                   	ret    

0804b733 <strerror>:
 804b733:	55                   	push   %ebp
 804b734:	89 e5                	mov    %esp,%ebp
 804b736:	e8 cc d9 ff ff       	call   8049107 <__i686.get_pc_thunk.cx>
 804b73b:	81 c1 0d 2f 00 00    	add    $0x2f0d,%ecx
 804b741:	81 7d 08 83 00 00 00 	cmpl   $0x83,0x8(%ebp)
 804b748:	0f 87 fd 06 00 00    	ja     804be4b <strerror+0x718>
 804b74e:	8b 45 08             	mov    0x8(%ebp),%eax
 804b751:	c1 e0 02             	shl    $0x2,%eax
 804b754:	8b 84 08 1c d1 ff ff 	mov    -0x2ee4(%eax,%ecx,1),%eax
 804b75b:	89 ca                	mov    %ecx,%edx
 804b75d:	29 c2                	sub    %eax,%edx
 804b75f:	89 d0                	mov    %edx,%eax
 804b761:	ff e0                	jmp    *%eax
 804b763:	90                   	nop
 804b764:	fd                   	std    
 804b765:	27                   	daa    
 804b766:	00 00                	add    %al,(%eax)
 804b768:	d4 2c                	aam    $0x2c
 804b76a:	00 00                	add    %al,(%eax)
 804b76c:	c9                   	leave  
 804b76d:	2c 00                	sub    $0x0,%al
 804b76f:	00 be 2c 00 00 b3    	add    %bh,-0x4cffffd4(%esi)
 804b775:	2c 00                	sub    $0x0,%al
 804b777:	00 a8 2c 00 00 9d    	add    %ch,-0x62ffffd4(%eax)
 804b77d:	2c 00                	sub    $0x0,%al
 804b77f:	00 92 2c 00 00 87    	add    %dl,-0x78ffffd4(%edx)
 804b785:	2c 00                	sub    $0x0,%al
 804b787:	00 7c 2c 00          	add    %bh,0x0(%esp,%ebp,1)
 804b78b:	00 71 2c             	add    %dh,0x2c(%ecx)
 804b78e:	00 00                	add    %al,(%eax)
 804b790:	66                   	data16
 804b791:	2c 00                	sub    $0x0,%al
 804b793:	00 5b 2c             	add    %bl,0x2c(%ebx)
 804b796:	00 00                	add    %al,(%eax)
 804b798:	50                   	push   %eax
 804b799:	2c 00                	sub    $0x0,%al
 804b79b:	00 45 2c             	add    %al,0x2c(%ebp)
 804b79e:	00 00                	add    %al,(%eax)
 804b7a0:	3a 2c 00             	cmp    (%eax,%eax,1),%ch
 804b7a3:	00 2f                	add    %ch,(%edi)
 804b7a5:	2c 00                	sub    $0x0,%al
 804b7a7:	00 24 2c             	add    %ah,(%esp,%ebp,1)
 804b7aa:	00 00                	add    %al,(%eax)
 804b7ac:	19 2c 00             	sbb    %ebp,(%eax,%eax,1)
 804b7af:	00 0e                	add    %cl,(%esi)
 804b7b1:	2c 00                	sub    $0x0,%al
 804b7b3:	00 03                	add    %al,(%ebx)
 804b7b5:	2c 00                	sub    $0x0,%al
 804b7b7:	00 f8                	add    %bh,%al
 804b7b9:	2b 00                	sub    (%eax),%eax
 804b7bb:	00 ed                	add    %ch,%ch
 804b7bd:	2b 00                	sub    (%eax),%eax
 804b7bf:	00 e2                	add    %ah,%dl
 804b7c1:	2b 00                	sub    (%eax),%eax
 804b7c3:	00 d7                	add    %dl,%bh
 804b7c5:	2b 00                	sub    (%eax),%eax
 804b7c7:	00 cc                	add    %cl,%ah
 804b7c9:	2b 00                	sub    (%eax),%eax
 804b7cb:	00 c1                	add    %al,%cl
 804b7cd:	2b 00                	sub    (%eax),%eax
 804b7cf:	00 b6 2b 00 00 ab    	add    %dh,-0x54ffffd5(%esi)
 804b7d5:	2b 00                	sub    (%eax),%eax
 804b7d7:	00 a0 2b 00 00 95    	add    %ah,-0x6affffd5(%eax)
 804b7dd:	2b 00                	sub    (%eax),%eax
 804b7df:	00 8a 2b 00 00 7f    	add    %cl,0x7f00002b(%edx)
 804b7e5:	2b 00                	sub    (%eax),%eax
 804b7e7:	00 74 2b 00          	add    %dh,0x0(%ebx,%ebp,1)
 804b7eb:	00 69 2b             	add    %ch,0x2b(%ecx)
 804b7ee:	00 00                	add    %al,(%eax)
 804b7f0:	f0 2a 00             	lock sub (%eax),%al
 804b7f3:	00 bc 29 00 00 e5 2a 	add    %bh,0x2ae50000(%ecx,%ebp,1)
 804b7fa:	00 00                	add    %al,(%eax)
 804b7fc:	43                   	inc    %ebx
 804b7fd:	29 00                	sub    %eax,(%eax)
 804b7ff:	00 17                	add    %dl,(%edi)
 804b801:	29 00                	sub    %eax,(%eax)
 804b803:	00 38                	add    %bh,(%eax)
 804b805:	29 00                	sub    %eax,(%eax)
 804b807:	00 fd                	add    %bh,%ch
 804b809:	27                   	daa    
 804b80a:	00 00                	add    %al,(%eax)
 804b80c:	5e                   	pop    %esi
 804b80d:	2b 00                	sub    (%eax),%eax
 804b80f:	00 53 2b             	add    %dl,0x2b(%ebx)
 804b812:	00 00                	add    %al,(%eax)
 804b814:	48                   	dec    %eax
 804b815:	2b 00                	sub    (%eax),%eax
 804b817:	00 3d 2b 00 00 32    	add    %bh,0x3200002b
 804b81d:	2b 00                	sub    (%eax),%eax
 804b81f:	00 27                	add    %ah,(%edi)
 804b821:	2b 00                	sub    (%eax),%eax
 804b823:	00 1c 2b             	add    %bl,(%ebx,%ebp,1)
 804b826:	00 00                	add    %al,(%eax)
 804b828:	11 2b                	adc    %ebp,(%ebx)
 804b82a:	00 00                	add    %al,(%eax)
 804b82c:	06                   	push   %es
 804b82d:	2b 00                	sub    (%eax),%eax
 804b82f:	00 fb                	add    %bh,%bl
 804b831:	2a 00                	sub    (%eax),%al
 804b833:	00 b9 2a 00 00 ae    	add    %bh,-0x51ffffd6(%ecx)
 804b839:	2a 00                	sub    (%eax),%al
 804b83b:	00 a3 2a 00 00 98    	add    %ah,-0x67ffffd6(%ebx)
 804b841:	2a 00                	sub    (%eax),%al
 804b843:	00 8d 2a 00 00 82    	add    %cl,-0x7dffffd6(%ebp)
 804b849:	2a 00                	sub    (%eax),%al
 804b84b:	00 fd                	add    %bh,%ch
 804b84d:	27                   	daa    
 804b84e:	00 00                	add    %al,(%eax)
 804b850:	77 2a                	ja     804b87c <strerror+0x149>
 804b852:	00 00                	add    %al,(%eax)
 804b854:	56                   	push   %esi
 804b855:	2a 00                	sub    (%eax),%al
 804b857:	00 4b 2a             	add    %cl,0x2a(%ebx)
 804b85a:	00 00                	add    %al,(%eax)
 804b85c:	40                   	inc    %eax
 804b85d:	2a 00                	sub    (%eax),%al
 804b85f:	00 35 2a 00 00 2a    	add    %dh,0x2a00002a
 804b865:	2a 00                	sub    (%eax),%al
 804b867:	00 1f                	add    %bl,(%edi)
 804b869:	2a 00                	sub    (%eax),%al
 804b86b:	00 14 2a             	add    %dl,(%edx,%ebp,1)
 804b86e:	00 00                	add    %al,(%eax)
 804b870:	09 2a                	or     %ebp,(%edx)
 804b872:	00 00                	add    %al,(%eax)
 804b874:	fe                   	(bad)  
 804b875:	29 00                	sub    %eax,(%eax)
 804b877:	00 f3                	add    %dh,%bl
 804b879:	29 00                	sub    %eax,(%eax)
 804b87b:	00 e8                	add    %ch,%al
 804b87d:	29 00                	sub    %eax,(%eax)
 804b87f:	00 dd                	add    %bl,%ch
 804b881:	29 00                	sub    %eax,(%eax)
 804b883:	00 d2                	add    %dl,%dl
 804b885:	29 00                	sub    %eax,(%eax)
 804b887:	00 fd                	add    %bh,%ch
 804b889:	27                   	daa    
 804b88a:	00 00                	add    %al,(%eax)
 804b88c:	c7                   	(bad)  
 804b88d:	29 00                	sub    %eax,(%eax)
 804b88f:	00 b1 29 00 00 a6    	add    %dh,-0x59ffffd7(%ecx)
 804b895:	29 00                	sub    %eax,(%eax)
 804b897:	00 9b 29 00 00 90    	add    %bl,-0x6fffffd7(%ebx)
 804b89d:	29 00                	sub    %eax,(%eax)
 804b89f:	00 85 29 00 00 7a    	add    %al,0x7a000029(%ebp)
 804b8a5:	29 00                	sub    %eax,(%eax)
 804b8a7:	00 6f 29             	add    %ch,0x29(%edi)
 804b8aa:	00 00                	add    %al,(%eax)
 804b8ac:	64 29 00             	sub    %eax,%fs:(%eax)
 804b8af:	00 59 29             	add    %bl,0x29(%ecx)
 804b8b2:	00 00                	add    %al,(%eax)
 804b8b4:	4e                   	dec    %esi
 804b8b5:	29 00                	sub    %eax,(%eax)
 804b8b7:	00 2d 29 00 00 22    	add    %ch,0x22000029
 804b8bd:	29 00                	sub    %eax,(%eax)
 804b8bf:	00 0c 29             	add    %cl,(%ecx,%ebp,1)
 804b8c2:	00 00                	add    %al,(%eax)
 804b8c4:	01 29                	add    %ebp,(%ecx)
 804b8c6:	00 00                	add    %al,(%eax)
 804b8c8:	f6 28                	imulb  (%eax)
 804b8ca:	00 00                	add    %al,(%eax)
 804b8cc:	eb 28                	jmp    804b8f6 <strerror+0x1c3>
 804b8ce:	00 00                	add    %al,(%eax)
 804b8d0:	e0 28                	loopne 804b8fa <strerror+0x1c7>
 804b8d2:	00 00                	add    %al,(%eax)
 804b8d4:	d5 28                	aad    $0x28
 804b8d6:	00 00                	add    %al,(%eax)
 804b8d8:	ca 28 00             	lret   $0x28
 804b8db:	00 bf 28 00 00 cf    	add    %bh,-0x30ffffd8(%edi)
 804b8e1:	2a 00                	sub    (%eax),%al
 804b8e3:	00 b4 28 00 00 a9 28 	add    %dh,0x28a90000(%eax,%ebp,1)
 804b8ea:	00 00                	add    %al,(%eax)
 804b8ec:	9e                   	sahf   
 804b8ed:	28 00                	sub    %al,(%eax)
 804b8ef:	00 93 28 00 00 88    	add    %dl,-0x77ffffd8(%ebx)
 804b8f5:	28 00                	sub    %al,(%eax)
 804b8f7:	00 7d 28             	add    %bh,0x28(%ebp)
 804b8fa:	00 00                	add    %al,(%eax)
 804b8fc:	75 28                	jne    804b926 <strerror+0x1f3>
 804b8fe:	00 00                	add    %al,(%eax)
 804b900:	6d                   	insl   (%dx),%es:(%edi)
 804b901:	28 00                	sub    %al,(%eax)
 804b903:	00 65 28             	add    %ah,0x28(%ebp)
 804b906:	00 00                	add    %al,(%eax)
 804b908:	5d                   	pop    %ebp
 804b909:	28 00                	sub    %al,(%eax)
 804b90b:	00 55 28             	add    %dl,0x28(%ebp)
 804b90e:	00 00                	add    %al,(%eax)
 804b910:	4d                   	dec    %ebp
 804b911:	28 00                	sub    %al,(%eax)
 804b913:	00 45 28             	add    %al,0x28(%ebp)
 804b916:	00 00                	add    %al,(%eax)
 804b918:	3d 28 00 00 35       	cmp    $0x35000028,%eax
 804b91d:	28 00                	sub    %al,(%eax)
 804b91f:	00 2d 28 00 00 25    	add    %ch,0x25000028
 804b925:	28 00                	sub    %al,(%eax)
 804b927:	00 1d 28 00 00 15    	add    %bl,0x15000028
 804b92d:	28 00                	sub    %al,(%eax)
 804b92f:	00 0d 28 00 00 05    	add    %cl,0x5000028
 804b935:	28 00                	sub    %al,(%eax)
 804b937:	00 fd                	add    %bh,%ch
 804b939:	27                   	daa    
 804b93a:	00 00                	add    %al,(%eax)
 804b93c:	fd                   	std    
 804b93d:	27                   	daa    
 804b93e:	00 00                	add    %al,(%eax)
 804b940:	fd                   	std    
 804b941:	27                   	daa    
 804b942:	00 00                	add    %al,(%eax)
 804b944:	fd                   	std    
 804b945:	27                   	daa    
 804b946:	00 00                	add    %al,(%eax)
 804b948:	fd                   	std    
 804b949:	27                   	daa    
 804b94a:	00 00                	add    %al,(%eax)
 804b94c:	c4 2a                	les    (%edx),%ebp
 804b94e:	00 00                	add    %al,(%eax)
 804b950:	fd                   	std    
 804b951:	27                   	daa    
 804b952:	00 00                	add    %al,(%eax)
 804b954:	fd                   	std    
 804b955:	27                   	daa    
 804b956:	00 00                	add    %al,(%eax)
 804b958:	da 2a                	fisubrl (%edx)
 804b95a:	00 00                	add    %al,(%eax)
 804b95c:	fd                   	std    
 804b95d:	27                   	daa    
 804b95e:	00 00                	add    %al,(%eax)
 804b960:	fd                   	std    
 804b961:	27                   	daa    
 804b962:	00 00                	add    %al,(%eax)
 804b964:	fd                   	std    
 804b965:	27                   	daa    
 804b966:	00 00                	add    %al,(%eax)
 804b968:	fd                   	std    
 804b969:	27                   	daa    
 804b96a:	00 00                	add    %al,(%eax)
 804b96c:	6c                   	insb   (%dx),%es:(%edi)
 804b96d:	2a 00                	sub    (%eax),%al
 804b96f:	00 61 2a             	add    %ah,0x2a(%ecx)
 804b972:	00 00                	add    %al,(%eax)
 804b974:	8d 81 7c da ff ff    	lea    -0x2584(%ecx),%eax
 804b97a:	e9 d1 04 00 00       	jmp    804be50 <strerror+0x71d>
 804b97f:	8d 81 8b da ff ff    	lea    -0x2575(%ecx),%eax
 804b985:	e9 c6 04 00 00       	jmp    804be50 <strerror+0x71d>
 804b98a:	8d 81 a5 da ff ff    	lea    -0x255b(%ecx),%eax
 804b990:	e9 bb 04 00 00       	jmp    804be50 <strerror+0x71d>
 804b995:	8d 81 b5 da ff ff    	lea    -0x254b(%ecx),%eax
 804b99b:	e9 b0 04 00 00       	jmp    804be50 <strerror+0x71d>
 804b9a0:	8d 81 cd da ff ff    	lea    -0x2533(%ecx),%eax
 804b9a6:	e9 a5 04 00 00       	jmp    804be50 <strerror+0x71d>
 804b9ab:	8d 81 d7 da ff ff    	lea    -0x2529(%ecx),%eax
 804b9b1:	e9 9a 04 00 00       	jmp    804be50 <strerror+0x71d>
 804b9b6:	8d 81 f1 da ff ff    	lea    -0x250f(%ecx),%eax
 804b9bc:	e9 8f 04 00 00       	jmp    804be50 <strerror+0x71d>
 804b9c1:	8d 81 03 db ff ff    	lea    -0x24fd(%ecx),%eax
 804b9c7:	e9 84 04 00 00       	jmp    804be50 <strerror+0x71d>
 804b9cc:	8d 81 15 db ff ff    	lea    -0x24eb(%ecx),%eax
 804b9d2:	e9 79 04 00 00       	jmp    804be50 <strerror+0x71d>
 804b9d7:	8d 81 25 db ff ff    	lea    -0x24db(%ecx),%eax
 804b9dd:	e9 6e 04 00 00       	jmp    804be50 <strerror+0x71d>
 804b9e2:	8d 81 34 db ff ff    	lea    -0x24cc(%ecx),%eax
 804b9e8:	e9 63 04 00 00       	jmp    804be50 <strerror+0x71d>
 804b9ed:	8d 81 55 db ff ff    	lea    -0x24ab(%ecx),%eax
 804b9f3:	e9 58 04 00 00       	jmp    804be50 <strerror+0x71d>
 804b9f8:	8d 81 65 db ff ff    	lea    -0x249b(%ecx),%eax
 804b9fe:	e9 4d 04 00 00       	jmp    804be50 <strerror+0x71d>
 804ba03:	8d 81 77 db ff ff    	lea    -0x2489(%ecx),%eax
 804ba09:	e9 42 04 00 00       	jmp    804be50 <strerror+0x71d>
 804ba0e:	8d 81 83 db ff ff    	lea    -0x247d(%ecx),%eax
 804ba14:	e9 37 04 00 00       	jmp    804be50 <strerror+0x71d>
 804ba19:	8d 81 99 db ff ff    	lea    -0x2467(%ecx),%eax
 804ba1f:	e9 2c 04 00 00       	jmp    804be50 <strerror+0x71d>
 804ba24:	8d 81 ab db ff ff    	lea    -0x2455(%ecx),%eax
 804ba2a:	e9 21 04 00 00       	jmp    804be50 <strerror+0x71d>
 804ba2f:	8d 81 b7 db ff ff    	lea    -0x2449(%ecx),%eax
 804ba35:	e9 16 04 00 00       	jmp    804be50 <strerror+0x71d>
 804ba3a:	8d 81 c9 db ff ff    	lea    -0x2437(%ecx),%eax
 804ba40:	e9 0b 04 00 00       	jmp    804be50 <strerror+0x71d>
 804ba45:	8d 81 d8 db ff ff    	lea    -0x2428(%ecx),%eax
 804ba4b:	e9 00 04 00 00       	jmp    804be50 <strerror+0x71d>
 804ba50:	8d 81 e8 db ff ff    	lea    -0x2418(%ecx),%eax
 804ba56:	e9 f5 03 00 00       	jmp    804be50 <strerror+0x71d>
 804ba5b:	8d 81 f7 db ff ff    	lea    -0x2409(%ecx),%eax
 804ba61:	e9 ea 03 00 00       	jmp    804be50 <strerror+0x71d>
 804ba66:	8d 81 08 dc ff ff    	lea    -0x23f8(%ecx),%eax
 804ba6c:	e9 df 03 00 00       	jmp    804be50 <strerror+0x71d>
 804ba71:	8d 81 1c dc ff ff    	lea    -0x23e4(%ecx),%eax
 804ba77:	e9 d4 03 00 00       	jmp    804be50 <strerror+0x71d>
 804ba7c:	8d 81 30 dc ff ff    	lea    -0x23d0(%ecx),%eax
 804ba82:	e9 c9 03 00 00       	jmp    804be50 <strerror+0x71d>
 804ba87:	8d 81 4f dc ff ff    	lea    -0x23b1(%ecx),%eax
 804ba8d:	e9 be 03 00 00       	jmp    804be50 <strerror+0x71d>
 804ba92:	8d 81 5e dc ff ff    	lea    -0x23a2(%ecx),%eax
 804ba98:	e9 b3 03 00 00       	jmp    804be50 <strerror+0x71d>
 804ba9d:	8d 81 6d dc ff ff    	lea    -0x2393(%ecx),%eax
 804baa3:	e9 a8 03 00 00       	jmp    804be50 <strerror+0x71d>
 804baa8:	8d 81 85 dc ff ff    	lea    -0x237b(%ecx),%eax
 804baae:	e9 9d 03 00 00       	jmp    804be50 <strerror+0x71d>
 804bab3:	8d 81 92 dc ff ff    	lea    -0x236e(%ecx),%eax
 804bab9:	e9 92 03 00 00       	jmp    804be50 <strerror+0x71d>
 804babe:	8d 81 a8 dc ff ff    	lea    -0x2358(%ecx),%eax
 804bac4:	e9 87 03 00 00       	jmp    804be50 <strerror+0x71d>
 804bac9:	8d 81 b7 dc ff ff    	lea    -0x2349(%ecx),%eax
 804bacf:	e9 7c 03 00 00       	jmp    804be50 <strerror+0x71d>
 804bad4:	8d 81 c4 dc ff ff    	lea    -0x233c(%ecx),%eax
 804bada:	e9 71 03 00 00       	jmp    804be50 <strerror+0x71d>
 804badf:	8d 81 e3 dc ff ff    	lea    -0x231d(%ecx),%eax
 804bae5:	e9 66 03 00 00       	jmp    804be50 <strerror+0x71d>
 804baea:	8d 81 01 dd ff ff    	lea    -0x22ff(%ecx),%eax
 804baf0:	e9 5b 03 00 00       	jmp    804be50 <strerror+0x71d>
 804baf5:	8d 81 1c dd ff ff    	lea    -0x22e4(%ecx),%eax
 804bafb:	e9 50 03 00 00       	jmp    804be50 <strerror+0x71d>
 804bb00:	8d 81 2f dd ff ff    	lea    -0x22d1(%ecx),%eax
 804bb06:	e9 45 03 00 00       	jmp    804be50 <strerror+0x71d>
 804bb0b:	8d 81 4b dd ff ff    	lea    -0x22b5(%ecx),%eax
 804bb11:	e9 3a 03 00 00       	jmp    804be50 <strerror+0x71d>
 804bb16:	8d 81 64 dd ff ff    	lea    -0x229c(%ecx),%eax
 804bb1c:	e9 2f 03 00 00       	jmp    804be50 <strerror+0x71d>
 804bb21:	8d 81 73 dd ff ff    	lea    -0x228d(%ecx),%eax
 804bb27:	e9 24 03 00 00       	jmp    804be50 <strerror+0x71d>
 804bb2c:	8d 81 81 dd ff ff    	lea    -0x227f(%ecx),%eax
 804bb32:	e9 19 03 00 00       	jmp    804be50 <strerror+0x71d>
 804bb37:	8d 81 9a dd ff ff    	lea    -0x2266(%ecx),%eax
 804bb3d:	e9 0e 03 00 00       	jmp    804be50 <strerror+0x71d>
 804bb42:	8d 81 b7 dd ff ff    	lea    -0x2249(%ecx),%eax
 804bb48:	e9 03 03 00 00       	jmp    804be50 <strerror+0x71d>
 804bb4d:	8d 81 d2 dd ff ff    	lea    -0x222e(%ecx),%eax
 804bb53:	e9 f8 02 00 00       	jmp    804be50 <strerror+0x71d>
 804bb58:	8d 81 e1 dd ff ff    	lea    -0x221f(%ecx),%eax
 804bb5e:	e9 ed 02 00 00       	jmp    804be50 <strerror+0x71d>
 804bb63:	8d 81 f5 dd ff ff    	lea    -0x220b(%ecx),%eax
 804bb69:	e9 e2 02 00 00       	jmp    804be50 <strerror+0x71d>
 804bb6e:	8d 81 10 de ff ff    	lea    -0x21f0(%ecx),%eax
 804bb74:	e9 d7 02 00 00       	jmp    804be50 <strerror+0x71d>
 804bb79:	8d 81 23 de ff ff    	lea    -0x21dd(%ecx),%eax
 804bb7f:	e9 cc 02 00 00       	jmp    804be50 <strerror+0x71d>
 804bb84:	8d 81 3b de ff ff    	lea    -0x21c5(%ecx),%eax
 804bb8a:	e9 c1 02 00 00       	jmp    804be50 <strerror+0x71d>
 804bb8f:	8d 81 4f de ff ff    	lea    -0x21b1(%ecx),%eax
 804bb95:	e9 b6 02 00 00       	jmp    804be50 <strerror+0x71d>
 804bb9a:	8d 81 60 de ff ff    	lea    -0x21a0(%ecx),%eax
 804bba0:	e9 ab 02 00 00       	jmp    804be50 <strerror+0x71d>
 804bba5:	8d 81 7b de ff ff    	lea    -0x2185(%ecx),%eax
 804bbab:	e9 a0 02 00 00       	jmp    804be50 <strerror+0x71d>
 804bbb0:	8d 81 89 de ff ff    	lea    -0x2177(%ecx),%eax
 804bbb6:	e9 95 02 00 00       	jmp    804be50 <strerror+0x71d>
 804bbbb:	8d 81 92 de ff ff    	lea    -0x216e(%ecx),%eax
 804bbc1:	e9 8a 02 00 00       	jmp    804be50 <strerror+0x71d>
 804bbc6:	8d 81 a7 de ff ff    	lea    -0x2159(%ecx),%eax
 804bbcc:	e9 7f 02 00 00       	jmp    804be50 <strerror+0x71d>
 804bbd1:	8d 81 b4 de ff ff    	lea    -0x214c(%ecx),%eax
 804bbd7:	e9 74 02 00 00       	jmp    804be50 <strerror+0x71d>
 804bbdc:	8d 81 c6 de ff ff    	lea    -0x213a(%ecx),%eax
 804bbe2:	e9 69 02 00 00       	jmp    804be50 <strerror+0x71d>
 804bbe7:	8d 81 e1 de ff ff    	lea    -0x211f(%ecx),%eax
 804bbed:	e9 5e 02 00 00       	jmp    804be50 <strerror+0x71d>
 804bbf2:	8d 81 f9 de ff ff    	lea    -0x2107(%ecx),%eax
 804bbf8:	e9 53 02 00 00       	jmp    804be50 <strerror+0x71d>
 804bbfd:	8d 81 0d df ff ff    	lea    -0x20f3(%ecx),%eax
 804bc03:	e9 48 02 00 00       	jmp    804be50 <strerror+0x71d>
 804bc08:	8d 81 27 df ff ff    	lea    -0x20d9(%ecx),%eax
 804bc0e:	e9 3d 02 00 00       	jmp    804be50 <strerror+0x71d>
 804bc13:	8d 81 35 df ff ff    	lea    -0x20cb(%ecx),%eax
 804bc19:	e9 32 02 00 00       	jmp    804be50 <strerror+0x71d>
 804bc1e:	8d 81 4e df ff ff    	lea    -0x20b2(%ecx),%eax
 804bc24:	e9 27 02 00 00       	jmp    804be50 <strerror+0x71d>
 804bc29:	8d 81 6c df ff ff    	lea    -0x2094(%ecx),%eax
 804bc2f:	e9 1c 02 00 00       	jmp    804be50 <strerror+0x71d>
 804bc34:	8d 81 82 df ff ff    	lea    -0x207e(%ecx),%eax
 804bc3a:	e9 11 02 00 00       	jmp    804be50 <strerror+0x71d>
 804bc3f:	8d 81 97 df ff ff    	lea    -0x2069(%ecx),%eax
 804bc45:	e9 06 02 00 00       	jmp    804be50 <strerror+0x71d>
 804bc4a:	8d 81 b1 df ff ff    	lea    -0x204f(%ecx),%eax
 804bc50:	e9 fb 01 00 00       	jmp    804be50 <strerror+0x71d>
 804bc55:	8d 81 c1 df ff ff    	lea    -0x203f(%ecx),%eax
 804bc5b:	e9 f0 01 00 00       	jmp    804be50 <strerror+0x71d>
 804bc60:	8d 81 cf df ff ff    	lea    -0x2031(%ecx),%eax
 804bc66:	e9 e5 01 00 00       	jmp    804be50 <strerror+0x71d>
 804bc6b:	8d 81 eb df ff ff    	lea    -0x2015(%ecx),%eax
 804bc71:	e9 da 01 00 00       	jmp    804be50 <strerror+0x71d>
 804bc76:	8d 81 fa df ff ff    	lea    -0x2006(%ecx),%eax
 804bc7c:	e9 cf 01 00 00       	jmp    804be50 <strerror+0x71d>
 804bc81:	8d 81 10 e0 ff ff    	lea    -0x1ff0(%ecx),%eax
 804bc87:	e9 c4 01 00 00       	jmp    804be50 <strerror+0x71d>
 804bc8c:	8d 81 32 e0 ff ff    	lea    -0x1fce(%ecx),%eax
 804bc92:	e9 b9 01 00 00       	jmp    804be50 <strerror+0x71d>
 804bc97:	8d 81 48 e0 ff ff    	lea    -0x1fb8(%ecx),%eax
 804bc9d:	e9 ae 01 00 00       	jmp    804be50 <strerror+0x71d>
 804bca2:	8d 81 72 e0 ff ff    	lea    -0x1f8e(%ecx),%eax
 804bca8:	e9 a3 01 00 00       	jmp    804be50 <strerror+0x71d>
 804bcad:	8d 81 90 e0 ff ff    	lea    -0x1f70(%ecx),%eax
 804bcb3:	e9 98 01 00 00       	jmp    804be50 <strerror+0x71d>
 804bcb8:	8d 81 b0 e0 ff ff    	lea    -0x1f50(%ecx),%eax
 804bcbe:	e9 8d 01 00 00       	jmp    804be50 <strerror+0x71d>
 804bcc3:	8d 81 c8 e0 ff ff    	lea    -0x1f38(%ecx),%eax
 804bcc9:	e9 82 01 00 00       	jmp    804be50 <strerror+0x71d>
 804bcce:	8d 81 ec e0 ff ff    	lea    -0x1f14(%ecx),%eax
 804bcd4:	e9 77 01 00 00       	jmp    804be50 <strerror+0x71d>
 804bcd9:	8d 81 10 e1 ff ff    	lea    -0x1ef0(%ecx),%eax
 804bcdf:	e9 6c 01 00 00       	jmp    804be50 <strerror+0x71d>
 804bce4:	8d 81 34 e1 ff ff    	lea    -0x1ecc(%ecx),%eax
 804bcea:	e9 61 01 00 00       	jmp    804be50 <strerror+0x71d>
 804bcef:	8d 81 5c e1 ff ff    	lea    -0x1ea4(%ecx),%eax
 804bcf5:	e9 56 01 00 00       	jmp    804be50 <strerror+0x71d>
 804bcfa:	8d 81 81 e1 ff ff    	lea    -0x1e7f(%ecx),%eax
 804bd00:	e9 4b 01 00 00       	jmp    804be50 <strerror+0x71d>
 804bd05:	8d 81 98 e1 ff ff    	lea    -0x1e68(%ecx),%eax
 804bd0b:	e9 40 01 00 00       	jmp    804be50 <strerror+0x71d>
 804bd10:	8d 81 ba e1 ff ff    	lea    -0x1e46(%ecx),%eax
 804bd16:	e9 35 01 00 00       	jmp    804be50 <strerror+0x71d>
 804bd1b:	8d 81 cd e1 ff ff    	lea    -0x1e33(%ecx),%eax
 804bd21:	e9 2a 01 00 00       	jmp    804be50 <strerror+0x71d>
 804bd26:	8d 81 e8 e1 ff ff    	lea    -0x1e18(%ecx),%eax
 804bd2c:	e9 1f 01 00 00       	jmp    804be50 <strerror+0x71d>
 804bd31:	8d 81 11 e2 ff ff    	lea    -0x1def(%ecx),%eax
 804bd37:	e9 14 01 00 00       	jmp    804be50 <strerror+0x71d>
 804bd3c:	8d 81 25 e2 ff ff    	lea    -0x1ddb(%ecx),%eax
 804bd42:	e9 09 01 00 00       	jmp    804be50 <strerror+0x71d>
 804bd47:	8d 81 40 e2 ff ff    	lea    -0x1dc0(%ecx),%eax
 804bd4d:	e9 fe 00 00 00       	jmp    804be50 <strerror+0x71d>
 804bd52:	8d 81 5f e2 ff ff    	lea    -0x1da1(%ecx),%eax
 804bd58:	e9 f3 00 00 00       	jmp    804be50 <strerror+0x71d>
 804bd5d:	8d 81 7c e2 ff ff    	lea    -0x1d84(%ecx),%eax
 804bd63:	e9 e8 00 00 00       	jmp    804be50 <strerror+0x71d>
 804bd68:	8d 81 90 e2 ff ff    	lea    -0x1d70(%ecx),%eax
 804bd6e:	e9 dd 00 00 00       	jmp    804be50 <strerror+0x71d>
 804bd73:	8d 81 af e2 ff ff    	lea    -0x1d51(%ecx),%eax
 804bd79:	e9 d2 00 00 00       	jmp    804be50 <strerror+0x71d>
 804bd7e:	8d 81 c6 e2 ff ff    	lea    -0x1d3a(%ecx),%eax
 804bd84:	e9 c7 00 00 00       	jmp    804be50 <strerror+0x71d>
 804bd89:	8d 81 dd e2 ff ff    	lea    -0x1d23(%ecx),%eax
 804bd8f:	e9 bc 00 00 00       	jmp    804be50 <strerror+0x71d>
 804bd94:	8d 81 f7 e2 ff ff    	lea    -0x1d09(%ecx),%eax
 804bd9a:	e9 b1 00 00 00       	jmp    804be50 <strerror+0x71d>
 804bd9f:	8d 81 18 e3 ff ff    	lea    -0x1ce8(%ecx),%eax
 804bda5:	e9 a6 00 00 00       	jmp    804be50 <strerror+0x71d>
 804bdaa:	8d 81 48 e3 ff ff    	lea    -0x1cb8(%ecx),%eax
 804bdb0:	e9 9b 00 00 00       	jmp    804be50 <strerror+0x71d>
 804bdb5:	8d 81 60 e3 ff ff    	lea    -0x1ca0(%ecx),%eax
 804bdbb:	e9 90 00 00 00       	jmp    804be50 <strerror+0x71d>
 804bdc0:	8d 81 7f e3 ff ff    	lea    -0x1c81(%ecx),%eax
 804bdc6:	e9 85 00 00 00       	jmp    804be50 <strerror+0x71d>
 804bdcb:	8d 81 8f e3 ff ff    	lea    -0x1c71(%ecx),%eax
 804bdd1:	eb 7d                	jmp    804be50 <strerror+0x71d>
 804bdd3:	8d 81 a8 e3 ff ff    	lea    -0x1c58(%ecx),%eax
 804bdd9:	eb 75                	jmp    804be50 <strerror+0x71d>
 804bddb:	8d 81 d4 e3 ff ff    	lea    -0x1c2c(%ecx),%eax
 804bde1:	eb 6d                	jmp    804be50 <strerror+0x71d>
 804bde3:	8d 81 f5 e3 ff ff    	lea    -0x1c0b(%ecx),%eax
 804bde9:	eb 65                	jmp    804be50 <strerror+0x71d>
 804bdeb:	8d 81 0e e4 ff ff    	lea    -0x1bf2(%ecx),%eax
 804bdf1:	eb 5d                	jmp    804be50 <strerror+0x71d>
 804bdf3:	8d 81 28 e4 ff ff    	lea    -0x1bd8(%ecx),%eax
 804bdf9:	eb 55                	jmp    804be50 <strerror+0x71d>
 804bdfb:	8d 81 44 e4 ff ff    	lea    -0x1bbc(%ecx),%eax
 804be01:	eb 4d                	jmp    804be50 <strerror+0x71d>
 804be03:	8d 81 5c e4 ff ff    	lea    -0x1ba4(%ecx),%eax
 804be09:	eb 45                	jmp    804be50 <strerror+0x71d>
 804be0b:	8d 81 80 e4 ff ff    	lea    -0x1b80(%ecx),%eax
 804be11:	eb 3d                	jmp    804be50 <strerror+0x71d>
 804be13:	8d 81 a2 e4 ff ff    	lea    -0x1b5e(%ecx),%eax
 804be19:	eb 35                	jmp    804be50 <strerror+0x71d>
 804be1b:	8d 81 b7 e4 ff ff    	lea    -0x1b49(%ecx),%eax
 804be21:	eb 2d                	jmp    804be50 <strerror+0x71d>
 804be23:	8d 81 ca e4 ff ff    	lea    -0x1b36(%ecx),%eax
 804be29:	eb 25                	jmp    804be50 <strerror+0x71d>
 804be2b:	8d 81 d7 e4 ff ff    	lea    -0x1b29(%ecx),%eax
 804be31:	eb 1d                	jmp    804be50 <strerror+0x71d>
 804be33:	8d 81 e8 e4 ff ff    	lea    -0x1b18(%ecx),%eax
 804be39:	eb 15                	jmp    804be50 <strerror+0x71d>
 804be3b:	8d 81 06 e5 ff ff    	lea    -0x1afa(%ecx),%eax
 804be41:	eb 0d                	jmp    804be50 <strerror+0x71d>
 804be43:	8d 81 20 e5 ff ff    	lea    -0x1ae0(%ecx),%eax
 804be49:	eb 05                	jmp    804be50 <strerror+0x71d>
 804be4b:	b8 00 00 00 00       	mov    $0x0,%eax
 804be50:	5d                   	pop    %ebp
 804be51:	c3                   	ret    
